(dp0
S'HEADER'
p1
S'This is a GPI Network File'
p2
sS'GPI_VERSION'
p3
S'0.5.0-n1'
p4
sS'PLATFORM'
p5
(dp6
S'PYTHON_VERSION'
p7
S'2.7.9'
p8
sS'PYTHON'
p9
S'CPython'
p10
sS'TOTAL_PHYMEM'
p11
L4141793280L
sS'NUM_CPUS'
p12
I2
sS'HOSTNAME'
p13
S'gpistack'
p14
sg5
S'Linux-3.13.0-32-generic-x86_64-with-debian-jessie-sid'
p15
sS'TOTAL_PHYMEM_STR'
p16
S'3.86 GB'
p17
sS'OS'
p18
S'Linux'
p19
ssS'DATETIME'
p20
S'Sun Oct 11 10:18:22 2015'
p21
sS'NETWORK_VERSION'
p22
S'2'
p23
sS'layouts'
p24
(lp25
sS'TOTAL_PMEM'
p26
S'60967424'
p27
sS'nodes'
p28
(dp29
S'macroNodes'
p30
(lp31
sg28
(lp32
(dp33
S'widget_settings'
p34
(dp35
S'parms'
p36
(lp37
(dp38
S'type'
p39
S"<class 'gpi.widgets.ExclusivePushButtons'>"
p40
sS'name'
p41
S'Complex Display'
p42
sS'kwargs'
p43
(dp44
S'outport'
p45
I00
sS'quietval'
p46
NsS'val'
p47
I4
sS'collapsed'
p48
I00
sS'inport'
p49
I00
sS'visible'
p50
I01
sS'id'
p51
I139909184535144
ssa(dp52
g39
S"<class 'gpi.widgets.ExclusivePushButtons'>"
p53
sg41
S'Color Map'
p54
sg43
(dp55
S'outport'
p56
I00
sS'quietval'
p57
Nsg47
I0
sS'collapsed'
p58
I01
sS'inport'
p59
I00
sS'visible'
p60
I00
sS'id'
p61
I139909184536208
ssa(dp62
g39
S"<class 'gpi.widgets.SpinBox'>"
p63
sg41
S'Edge Pixels'
p64
sg43
(dp65
S'outport'
p66
I00
sS'quietval'
p67
Nsg47
I0
sS'min'
p68
I0
sS'max'
p69
I2147483647
sS'collapsed'
p70
I00
sS'wrapping'
p71
I00
sS'immediate'
p72
I00
sS'label'
p73
V
p74
sS'singlestep'
p75
I1
sS'visible'
p76
I01
sS'inport'
p77
I00
sS'id'
p78
I139909184553952
ssa(dp79
g39
S"<class 'gpi.widgets.SpinBox'>"
p80
sg41
S'Black Pixels'
p81
sg43
(dp82
S'outport'
p83
I00
sS'quietval'
p84
Nsg47
I0
sS'min'
p85
I0
sS'max'
p86
I2147483647
sS'collapsed'
p87
I00
sS'wrapping'
p88
I00
sS'immediate'
p89
I00
sS'label'
p90
g74
sS'singlestep'
p91
I1
sS'visible'
p92
I01
sS'inport'
p93
I00
sS'id'
p94
I139909184554864
ssa(dp95
g39
S"<class 'gpi.widgets.DisplayBox'>"
p96
sg41
S'Viewport:'
p97
sg43
(dp98
S'outport'
p99
I00
sS'scale'
p100
F1.0
sS'quietval'
p101
Nsg47
NsS'collapsed'
p102
I00
sS'interp'
p103
I00
sS'inport'
p104
I00
sS'visible'
p105
I01
sS'noscroll'
p106
I01
sS'points'
p107
NsS'line'
p108
NsS'id'
p109
I139909184555776
ssa(dp110
g39
S"<class '/opt/gpi/node/core/display/GPI/ImageDisplay_GPI.WindowLevel'>"
p111
sg41
S'L W F C:'
p112
sg43
(dp113
S'outport'
p114
I00
sS'quietval'
p115
Nsg47
(dp116
S'window'
p117
I100
sS'floor'
p118
I0
sS'ceiling'
p119
I100
sS'level'
p120
I50
ssS'min'
p121
I0
sS'max'
p122
I100
sS'collapsed'
p123
I00
sS'inport'
p124
I00
sS'visible'
p125
I01
sS'id'
p126
I139909184566544
ssa(dp127
g39
S"<class 'gpi.widgets.ExclusivePushButtons'>"
p128
sg41
S'Scalar Display'
p129
sg43
(dp130
S'outport'
p131
I00
sS'quietval'
p132
Nsg47
I0
sS'collapsed'
p133
I00
sS'inport'
p134
I00
sS'visible'
p135
I00
sS'id'
p136
I139909184571400
ssa(dp137
g39
S"<class 'gpi.widgets.DoubleSpinBox'>"
p138
sg41
S'Gamma'
p139
sg43
(dp140
S'outport'
p141
I00
sS'quietval'
p142
Nsg47
F1.0
sS'min'
p143
F0.1
sS'max'
p144
F10.0
sS'collapsed'
p145
I00
sS'wrapping'
p146
I00
sS'immediate'
p147
I00
sS'label'
p148
g74
sS'singlestep'
p149
F0.05
sS'visible'
p150
I01
sS'inport'
p151
I00
sS'decimals'
p152
I3
sS'id'
p153
I139909184572160
ssa(dp154
g39
S"<class 'gpi.widgets.ExclusivePushButtons'>"
p155
sg41
S'Zero Ref'
p156
sg43
(dp157
S'outport'
p158
I00
sS'quietval'
p159
Nsg47
I0
sS'collapsed'
p160
I00
sS'inport'
p161
I00
sS'visible'
p162
I00
sS'id'
p163
I139909184573072
ssa(dp164
g39
S"<class 'gpi.widgets.PushButton'>"
p165
sg41
S'Fix Range'
p166
sg43
(dp167
S'outport'
p168
I00
sS'quietval'
p169
Nsg47
I00
sS'collapsed'
p170
I00
sS'inport'
p171
I00
sS'visible'
p172
I01
sS'toggle'
p173
I01
sS'button_title'
p174
VAuto-Range On
p175
sS'id'
p176
I139909184582320
ssa(dp177
g39
S"<class 'gpi.widgets.DoubleSpinBox'>"
p178
sg41
S'Range Min'
p179
sg43
(dp180
S'outport'
p181
I00
sS'quietval'
p182
Nsg47
F-0.58
sS'min'
p183
F-1.7976931348623157e+308
sS'max'
p184
F1.7976931348623157e+308
sS'collapsed'
p185
I00
sS'wrapping'
p186
I00
sS'immediate'
p187
I00
sS'label'
p188
g74
sS'singlestep'
p189
F1.0
sS'visible'
p190
I00
sS'inport'
p191
I00
sS'decimals'
p192
I2
sS'id'
p193
I139909184583080
ssa(dp194
g39
S"<class 'gpi.widgets.DoubleSpinBox'>"
p195
sg41
S'Range Max'
p196
sg43
(dp197
S'outport'
p198
I00
sS'quietval'
p199
Nsg47
F0.61
sS'min'
p200
F-1.7976931348623157e+308
sS'max'
p201
F1.7976931348623157e+308
sS'collapsed'
p202
I00
sS'wrapping'
p203
I00
sS'immediate'
p204
I00
sS'label'
p205
g74
sS'singlestep'
p206
F1.0
sS'visible'
p207
I00
sS'inport'
p208
I00
sS'decimals'
p209
I2
sS'id'
p210
I139909184583992
ssasS'label'
p211
S'coil_imgs'
p212
ssS'avgwalltime'
p213
S'0.0657785336177'
p214
sg41
S'ImageDisplay'
p215
sS'pos'
p216
(lp217
F247.24175991631586
aF-220.9357333880607
asS'ports'
p218
(lp219
(dp220
S'porttitle'
p221
S'in'
p222
sS'portnum'
p223
I0
sS'connections'
p224
(lp225
(dp226
S'dest'
p227
(dp228
S'portName'
p229
g222
sS'portID'
p230
I139909184584904
sS'portNum'
p231
I0
sS'nodeID'
p232
I139909184532560
ssS'src'
p233
(dp234
g229
S'out'
p235
sg230
I139909029574056
sg231
I0
sg232
I139909038351632
ssasS'widgetTitle'
p236
NsS'porttype'
p237
I65540
sS'obligation'
p238
I100
sS'id'
p239
I139909184584904
sa(dp240
g221
g235
sg223
I0
sg224
(lp241
sg236
Nsg237
I65541
sg238
Nsg239
I139909184585056
sasS'stdwalltime'
p242
S'0.0314782587364'
p243
sS'key'
p244
S'core.display.ImageDisplay'
p245
sg239
I139909184532560
sS'walltime'
p246
S'0.0745000839233'
p247
sa(dp248
g34
(dp249
g36
(lp250
(dp251
g39
S"<class 'gpi.widgets.ExclusivePushButtons'>"
p252
sg41
S'Complex Display'
p253
sg43
(dp254
S'outport'
p255
I00
sS'quietval'
p256
Nsg47
I4
sS'collapsed'
p257
I00
sS'inport'
p258
I00
sS'visible'
p259
I01
sS'id'
p260
I139909183738240
ssa(dp261
g39
S"<class 'gpi.widgets.ExclusivePushButtons'>"
p262
sg41
S'Color Map'
p263
sg43
(dp264
S'outport'
p265
I00
sS'quietval'
p266
Nsg47
I0
sS'collapsed'
p267
I01
sS'inport'
p268
I00
sS'visible'
p269
I00
sS'id'
p270
I139909183739304
ssa(dp271
g39
S"<class 'gpi.widgets.SpinBox'>"
p272
sg41
S'Edge Pixels'
p273
sg43
(dp274
S'outport'
p275
I00
sS'quietval'
p276
Nsg47
I0
sS'min'
p277
I0
sS'max'
p278
I2147483647
sS'collapsed'
p279
I00
sS'wrapping'
p280
I00
sS'immediate'
p281
I00
sS'label'
p282
g74
sS'singlestep'
p283
I1
sS'visible'
p284
I01
sS'inport'
p285
I00
sS'id'
p286
I139909183740520
ssa(dp287
g39
S"<class 'gpi.widgets.SpinBox'>"
p288
sg41
S'Black Pixels'
p289
sg43
(dp290
S'outport'
p291
I00
sS'quietval'
p292
Nsg47
I0
sS'min'
p293
I0
sS'max'
p294
I2147483647
sS'collapsed'
p295
I00
sS'wrapping'
p296
I00
sS'immediate'
p297
I00
sS'label'
p298
g74
sS'singlestep'
p299
I1
sS'visible'
p300
I01
sS'inport'
p301
I00
sS'id'
p302
I139909183741432
ssa(dp303
g39
S"<class 'gpi.widgets.DisplayBox'>"
p304
sg41
S'Viewport:'
p305
sg43
(dp306
S'outport'
p307
I00
sS'scale'
p308
F1.0
sS'quietval'
p309
Nsg47
NsS'collapsed'
p310
I00
sS'interp'
p311
I00
sS'inport'
p312
I00
sS'visible'
p313
I01
sS'noscroll'
p314
I01
sS'points'
p315
NsS'line'
p316
NsS'id'
p317
I139909183808024
ssa(dp318
g39
S"<class '/opt/gpi/node/core/display/GPI/ImageDisplay_GPI.WindowLevel'>"
p319
sg41
S'L W F C:'
p320
sg43
(dp321
S'outport'
p322
I00
sS'quietval'
p323
Nsg47
(dp324
g117
I100
sg118
I0
sg119
I100
sg120
I50
ssS'min'
p325
I0
sS'max'
p326
I100
sS'collapsed'
p327
I00
sS'inport'
p328
I00
sS'visible'
p329
I01
sS'id'
p330
I139909183810456
ssa(dp331
g39
S"<class 'gpi.widgets.ExclusivePushButtons'>"
p332
sg41
S'Scalar Display'
p333
sg43
(dp334
S'outport'
p335
I00
sS'quietval'
p336
Nsg47
I0
sS'collapsed'
p337
I00
sS'inport'
p338
I00
sS'visible'
p339
I00
sS'id'
p340
I139909183790736
ssa(dp341
g39
S"<class 'gpi.widgets.DoubleSpinBox'>"
p342
sg41
g139
sg43
(dp343
S'outport'
p344
I00
sS'quietval'
p345
Nsg47
F1.0
sS'min'
p346
F0.1
sS'max'
p347
F10.0
sS'collapsed'
p348
I00
sS'wrapping'
p349
I00
sS'immediate'
p350
I00
sS'label'
p351
g74
sS'singlestep'
p352
F0.05
sS'visible'
p353
I01
sS'inport'
p354
I00
sS'decimals'
p355
I3
sS'id'
p356
I139909183713816
ssa(dp357
g39
S"<class 'gpi.widgets.ExclusivePushButtons'>"
p358
sg41
S'Zero Ref'
p359
sg43
(dp360
S'outport'
p361
I00
sS'quietval'
p362
Nsg47
I0
sS'collapsed'
p363
I00
sS'inport'
p364
I00
sS'visible'
p365
I00
sS'id'
p366
I139909183714728
ssa(dp367
g39
S"<class 'gpi.widgets.PushButton'>"
p368
sg41
S'Fix Range'
p369
sg43
(dp370
S'outport'
p371
I00
sS'quietval'
p372
Nsg47
I00
sS'collapsed'
p373
I00
sS'inport'
p374
I00
sS'visible'
p375
I01
sS'toggle'
p376
I01
sS'button_title'
p377
VAuto-Range On
p378
sS'id'
p379
I139909183715640
ssa(dp380
g39
S"<class 'gpi.widgets.DoubleSpinBox'>"
p381
sg41
S'Range Min'
p382
sg43
(dp383
S'outport'
p384
I00
sS'quietval'
p385
Nsg47
F-180.0
sS'min'
p386
F-1.7976931348623157e+308
sS'max'
p387
F1.7976931348623157e+308
sS'collapsed'
p388
I00
sS'wrapping'
p389
I00
sS'immediate'
p390
I00
sS'label'
p391
g74
sS'singlestep'
p392
F1.0
sS'visible'
p393
I00
sS'inport'
p394
I00
sS'decimals'
p395
I2
sS'id'
p396
I139909183716400
ssa(dp397
g39
S"<class 'gpi.widgets.DoubleSpinBox'>"
p398
sg41
S'Range Max'
p399
sg43
(dp400
S'outport'
p401
I00
sS'quietval'
p402
Nsg47
F0.87
sS'min'
p403
F-1.7976931348623157e+308
sS'max'
p404
F1.7976931348623157e+308
sS'collapsed'
p405
I00
sS'wrapping'
p406
I00
sS'immediate'
p407
I00
sS'label'
p408
g74
sS'singlestep'
p409
F1.0
sS'visible'
p410
I00
sS'inport'
p411
I00
sS'decimals'
p412
I2
sS'id'
p413
I139909183803472
ssasg211
S'sens_maps'
p414
ssg213
S'0.0506379008293'
p415
sg41
g215
sg216
(lp416
F-190.4053279914425
aF109.80653162876952
asg218
(lp417
(dp418
g221
g222
sg223
I0
sg224
(lp419
(dp420
g227
(dp421
g229
g222
sg230
I139909183804384
sg231
I0
sg232
I139909184306376
ssg233
(dp422
g229
g235
sg230
I139909164564864
sg231
I0
sg232
I139909164531344
ssasg236
Nsg237
I65540
sg238
I100
sg239
I139909183804384
sa(dp423
g221
g235
sg223
I0
sg224
(lp424
sg236
Nsg237
I65541
sg238
Nsg239
I139909183804536
sasg242
S'0.0399820586413'
p425
sg244
g245
sg239
I139909184306376
sg246
S'0.0507218837738'
p426
sa(dp427
g34
(dp428
g36
(lp429
(dp430
g39
S"<class 'gpi.widgets.ExclusivePushButtons'>"
p431
sg41
S'Complex Display'
p432
sg43
(dp433
S'outport'
p434
I00
sS'quietval'
p435
Nsg47
I2
sS'collapsed'
p436
I00
sS'inport'
p437
I00
sS'visible'
p438
I01
sS'id'
p439
I139909182647040
ssa(dp440
g39
S"<class 'gpi.widgets.ExclusivePushButtons'>"
p441
sg41
S'Color Map'
p442
sg43
(dp443
S'outport'
p444
I00
sS'quietval'
p445
Nsg47
I0
sS'collapsed'
p446
I01
sS'inport'
p447
I00
sS'visible'
p448
I01
sS'id'
p449
I139909182648104
ssa(dp450
g39
S"<class 'gpi.widgets.SpinBox'>"
p451
sg41
S'Edge Pixels'
p452
sg43
(dp453
S'outport'
p454
I00
sS'quietval'
p455
Nsg47
I0
sS'min'
p456
I0
sS'max'
p457
I2147483647
sS'collapsed'
p458
I00
sS'wrapping'
p459
I00
sS'immediate'
p460
I00
sS'label'
p461
g74
sS'singlestep'
p462
I1
sS'visible'
p463
I00
sS'inport'
p464
I00
sS'id'
p465
I139909182657656
ssa(dp466
g39
S"<class 'gpi.widgets.SpinBox'>"
p467
sg41
S'Black Pixels'
p468
sg43
(dp469
S'outport'
p470
I00
sS'quietval'
p471
Nsg47
I0
sS'min'
p472
I0
sS'max'
p473
I2147483647
sS'collapsed'
p474
I00
sS'wrapping'
p475
I00
sS'immediate'
p476
I00
sS'label'
p477
g74
sS'singlestep'
p478
I1
sS'visible'
p479
I00
sS'inport'
p480
I00
sS'id'
p481
I139909182658568
ssa(dp482
g39
S"<class 'gpi.widgets.DisplayBox'>"
p483
sg41
S'Viewport:'
p484
sg43
(dp485
S'outport'
p486
I00
sS'scale'
p487
F1.0
sS'quietval'
p488
Nsg47
NsS'collapsed'
p489
I00
sS'interp'
p490
I01
sS'inport'
p491
I00
sS'visible'
p492
I01
sS'noscroll'
p493
I01
sS'points'
p494
NsS'line'
p495
NsS'id'
p496
I139909182659480
ssa(dp497
g39
S"<class '/opt/gpi/node/core/display/GPI/ImageDisplay_GPI.WindowLevel'>"
p498
sg41
S'L W F C:'
p499
sg43
(dp500
S'outport'
p501
I00
sS'quietval'
p502
Nsg47
(dp503
g117
I100
sg118
I0
sg119
I100
sg120
I50
ssS'min'
p504
I0
sS'max'
p505
I100
sS'collapsed'
p506
I00
sS'inport'
p507
I00
sS'visible'
p508
I01
sS'id'
p509
I139909182662056
ssa(dp510
g39
S"<class 'gpi.widgets.ExclusivePushButtons'>"
p511
sg41
S'Scalar Display'
p512
sg43
(dp513
S'outport'
p514
I00
sS'quietval'
p515
Nsg47
I0
sS'collapsed'
p516
I00
sS'inport'
p517
I00
sS'visible'
p518
I01
sS'id'
p519
I139909182666912
ssa(dp520
g39
S"<class 'gpi.widgets.DoubleSpinBox'>"
p521
sg41
g139
sg43
(dp522
S'outport'
p523
I00
sS'quietval'
p524
Nsg47
F1.0
sS'min'
p525
F0.1
sS'max'
p526
F10.0
sS'collapsed'
p527
I00
sS'wrapping'
p528
I00
sS'immediate'
p529
I00
sS'label'
p530
g74
sS'singlestep'
p531
F0.05
sS'visible'
p532
I01
sS'inport'
p533
I00
sS'decimals'
p534
I3
sS'id'
p535
I139909182667672
ssa(dp536
g39
S"<class 'gpi.widgets.ExclusivePushButtons'>"
p537
sg41
S'Zero Ref'
p538
sg43
(dp539
S'outport'
p540
I00
sS'quietval'
p541
Nsg47
I0
sS'collapsed'
p542
I00
sS'inport'
p543
I00
sS'visible'
p544
I01
sS'id'
p545
I139909182668584
ssa(dp546
g39
S"<class 'gpi.widgets.PushButton'>"
p547
sg41
S'Fix Range'
p548
sg43
(dp549
S'outport'
p550
I00
sS'quietval'
p551
Nsg47
I00
sS'collapsed'
p552
I00
sS'inport'
p553
I00
sS'visible'
p554
I01
sS'toggle'
p555
I01
sS'button_title'
p556
VAuto-Range On
p557
sS'id'
p558
I139909182673736
ssa(dp559
g39
S"<class 'gpi.widgets.DoubleSpinBox'>"
p560
sg41
S'Range Min'
p561
sg43
(dp562
S'outport'
p563
I00
sS'quietval'
p564
Nsg47
F0.0
sS'min'
p565
F-1.7976931348623157e+308
sS'max'
p566
F1.7976931348623157e+308
sS'collapsed'
p567
I00
sS'wrapping'
p568
I00
sS'immediate'
p569
I00
sS'label'
p570
g74
sS'singlestep'
p571
F1.0
sS'visible'
p572
I01
sS'inport'
p573
I00
sS'decimals'
p574
I2
sS'id'
p575
I139909182674496
ssa(dp576
g39
S"<class 'gpi.widgets.DoubleSpinBox'>"
p577
sg41
S'Range Max'
p578
sg43
(dp579
S'outport'
p580
I00
sS'quietval'
p581
Nsg47
F2.38
sS'min'
p582
F-1.7976931348623157e+308
sS'max'
p583
F1.7976931348623157e+308
sS'collapsed'
p584
I00
sS'wrapping'
p585
I00
sS'immediate'
p586
I00
sS'label'
p587
g74
sS'singlestep'
p588
F1.0
sS'visible'
p589
I01
sS'inport'
p590
I00
sS'decimals'
p591
I2
sS'id'
p592
I139909182675408
ssasg211
S'sens_recon'
p593
ssg213
S'0.00227197011312'
p594
sg41
g215
sg216
(lp595
F78.98286104290807
aF-33.963053909507636
asg218
(lp596
(dp597
g221
g222
sg223
I0
sg224
(lp598
(dp599
g227
(dp600
g229
g222
sg230
I139909182676320
sg231
I0
sg232
I139909182644456
ssg233
(dp601
g229
g235
sg230
I139909164749032
sg231
I0
sg232
I139909164672880
ssasg236
Nsg237
I65540
sg238
I100
sg239
I139909182676320
sa(dp602
g221
g235
sg223
I0
sg224
(lp603
sg236
Nsg237
I65541
sg238
Nsg239
I139909182676472
sasg242
S'0.0015385106183'
p604
sg244
g245
sg239
I139909182644456
sg246
S'0.00279998779297'
p605
sa(dp606
g34
(dp607
g36
(lp608
(dp609
g39
S"<class 'gpi.widgets.TextBox'>"
p610
sg41
S'I/O Info:'
p611
sg43
(dp612
S'openExternalLinks'
p613
I00
sS'outport'
p614
I00
sS'quietval'
p615
Nsg47
S'input: (1, 230, 180)\noutput: (230, 180)'
p616
sS'collapsed'
p617
I00
sS'inport'
p618
I00
sS'visible'
p619
I01
sS'wordwrap'
p620
I00
sS'id'
p621
I139909164659376
ssa(dp622
g39
S"<class '/opt/gpi/node/core/shapers/GPI/Reduce_GPI.ReduceSliders'>"
p623
sg41
S'Dimension[-1]'
p624
sg43
(dp625
S'outport'
p626
I00
sS'quietval'
p627
Nsg47
(dp628
S'width'
p629
I180
sg119
I180
sS'selection'
p630
I3
sS'center'
p631
I91
sg118
I1
ssS'min'
p632
I1
sS'max'
p633
I180
sS'collapsed'
p634
I00
sS'inport'
p635
I00
sS'visible'
p636
I01
sS'id'
p637
I139909164659832
ssa(dp638
g39
S"<class '/opt/gpi/node/core/shapers/GPI/Reduce_GPI.ReduceSliders'>"
p639
sg41
S'Dimension[-2]'
p640
sg43
(dp641
S'outport'
p642
I00
sS'quietval'
p643
Nsg47
(dp644
g629
I230
sg119
I230
sg630
I3
sg631
I116
sg118
I1
ssS'min'
p645
I1
sS'max'
p646
I230
sS'collapsed'
p647
I00
sS'inport'
p648
I00
sS'visible'
p649
I01
sS'id'
p650
I139909164628280
ssa(dp651
g39
S"<class '/opt/gpi/node/core/shapers/GPI/Reduce_GPI.ReduceSliders'>"
p652
sg41
S'Dimension[-3]'
p653
sg43
(dp654
S'outport'
p655
I00
sS'quietval'
p656
Nsg47
(dp657
g629
I1
sg119
I1
sg630
I2
sg631
I1
sg118
I1
ssS'min'
p658
I1
sS'max'
p659
I1
sS'collapsed'
p660
I00
sS'inport'
p661
I00
sS'visible'
p662
I01
sS'id'
p663
I139909164631160
ssa(dp664
g39
S"<class '/opt/gpi/node/core/shapers/GPI/Reduce_GPI.ReduceSliders'>"
p665
sg41
S'Dimension[-4]'
p666
sg43
(dp667
S'outport'
p668
I00
sS'quietval'
p669
Nsg47
(dp670
g629
I1
sg119
I1
sg630
I3
sg631
I1
sg118
I1
ssS'min'
p671
I1
sS'max'
p672
I100
sS'collapsed'
p673
I00
sS'inport'
p674
I00
sS'visible'
p675
I00
sS'id'
p676
I139909164637688
ssa(dp677
g39
S"<class '/opt/gpi/node/core/shapers/GPI/Reduce_GPI.ReduceSliders'>"
p678
sg41
S'Dimension[-5]'
p679
sg43
(dp680
S'outport'
p681
I00
sS'quietval'
p682
Nsg47
(dp683
g629
I1
sg119
I1
sg630
I3
sg631
I1
sg118
I1
ssS'min'
p684
I1
sS'max'
p685
I100
sS'collapsed'
p686
I00
sS'inport'
p687
I00
sS'visible'
p688
I00
sS'id'
p689
I139909164655432
ssa(dp690
g39
S"<class '/opt/gpi/node/core/shapers/GPI/Reduce_GPI.ReduceSliders'>"
p691
sg41
S'Dimension[-6]'
p692
sg43
(dp693
S'outport'
p694
I00
sS'quietval'
p695
Nsg47
(dp696
g629
I1
sg119
I1
sg630
I3
sg631
I1
sg118
I1
ssS'min'
p697
I1
sS'max'
p698
I100
sS'collapsed'
p699
I00
sS'inport'
p700
I00
sS'visible'
p701
I00
sS'id'
p702
I139909164754648
ssa(dp703
g39
S"<class '/opt/gpi/node/core/shapers/GPI/Reduce_GPI.ReduceSliders'>"
p704
sg41
S'Dimension[-7]'
p705
sg43
(dp706
S'outport'
p707
I00
sS'quietval'
p708
Nsg47
(dp709
g629
I1
sg119
I1
sg630
I3
sg631
I1
sg118
I1
ssS'min'
p710
I1
sS'max'
p711
I100
sS'collapsed'
p712
I00
sS'inport'
p713
I00
sS'visible'
p714
I00
sS'id'
p715
I139909164784232
ssa(dp716
g39
S"<class '/opt/gpi/node/core/shapers/GPI/Reduce_GPI.ReduceSliders'>"
p717
sg41
S'Dimension[-8]'
p718
sg43
(dp719
S'outport'
p720
I00
sS'quietval'
p721
Nsg47
(dp722
g629
I1
sg119
I1
sg630
I3
sg631
I1
sg118
I1
ssS'min'
p723
I1
sS'max'
p724
I100
sS'collapsed'
p725
I00
sS'inport'
p726
I00
sS'visible'
p727
I00
sS'id'
p728
I139909059075576
ssa(dp729
g39
S"<class '/opt/gpi/node/core/shapers/GPI/Reduce_GPI.ReduceSliders'>"
p730
sg41
S'Dimension[-9]'
p731
sg43
(dp732
S'outport'
p733
I00
sS'quietval'
p734
Nsg47
(dp735
g629
I1
sg119
I1
sg630
I3
sg631
I1
sg118
I1
ssS'min'
p736
I1
sS'max'
p737
I100
sS'collapsed'
p738
I00
sS'inport'
p739
I00
sS'visible'
p740
I00
sS'id'
p741
I139909059080728
ssa(dp742
g39
S"<class '/opt/gpi/node/core/shapers/GPI/Reduce_GPI.ReduceSliders'>"
p743
sg41
S'Dimension[-10]'
p744
sg43
(dp745
S'outport'
p746
I00
sS'quietval'
p747
Nsg47
(dp748
g629
I1
sg119
I1
sg630
I3
sg631
I1
sg118
I1
ssS'min'
p749
I1
sS'max'
p750
I100
sS'collapsed'
p751
I00
sS'inport'
p752
I00
sS'visible'
p753
I00
sS'id'
p754
I139909059085736
ssa(dp755
g39
S"<class 'gpi.widgets.PushButton'>"
p756
sg41
S'Mask'
p757
sg43
(dp758
S'outport'
p759
I00
sS'quietval'
p760
Nsg47
I00
sS'collapsed'
p761
I00
sS'inport'
p762
I00
sS'visible'
p763
I01
sS'toggle'
p764
I01
sS'button_title'
p765
g74
sS'id'
p766
I139909059090744
ssa(dp767
g39
S"<class 'gpi.widgets.PushButton'>"
p768
sg41
S'Compute'
p769
sg43
(dp770
S'outport'
p771
I00
sS'quietval'
p772
Nsg47
I01
sS'collapsed'
p773
I00
sS'inport'
p774
I00
sS'visible'
p775
I01
sS'toggle'
p776
I01
sS'button_title'
p777
g74
sS'id'
p778
I139909059091504
ssasg211
S''
p779
ssg213
S'0.237879037857'
p780
sg41
S'Reduce'
p781
sg216
(lp782
F-309.60237833216627
aF-151.22583442172623
asg218
(lp783
(dp784
g221
g222
sg223
I0
sg224
(lp785
(dp786
g227
(dp787
g229
g222
sg230
I139909059092264
sg231
I0
sg232
I139909164623576
ssg233
(dp788
g229
S'Collapse Single Dim'
p789
sg230
I139909183460168
sg231
I0
sg232
I139909183361560
ssasg236
Nsg237
I65540
sg238
I100
sg239
I139909059092264
sa(dp790
g221
g235
sg223
I0
sg224
(lp791
(dp792
g227
(dp793
g229
g222
sg230
I139909182607440
sg231
I0
sg232
I139909183419208
ssg233
(dp794
g229
g235
sg230
I139909059092560
sg231
I0
sg232
I139909164623576
ssasg236
Nsg237
I65541
sg238
Nsg239
I139909059092560
sa(dp795
g221
S'mask'
p796
sg223
I1
sg224
(lp797
sg236
Nsg237
I65541
sg238
Nsg239
I139909059092712
sasg242
S'0.0135929584503'
p798
sg244
S'core.shapers.Reduce'
p799
sg239
I139909164623576
sg246
S'0.224286079407'
p800
sa(dp801
g34
(dp802
g36
(lp803
(dp804
g39
S"<class 'gpi.widgets.TextBox'>"
p805
sg41
S'I/O Info:'
p806
sg43
(dp807
S'openExternalLinks'
p808
I00
sS'outport'
p809
I00
sS'quietval'
p810
Nsg47
S'input: (1, 230, 180, 8, 2)\noutput: (1, 230, 180, 8)'
p811
sS'collapsed'
p812
I00
sS'inport'
p813
I00
sS'visible'
p814
I01
sS'wordwrap'
p815
I00
sS'id'
p816
I139909182725016
ssa(dp817
g39
S"<class '/opt/gpi/node/core/shapers/GPI/Reduce_GPI.ReduceSliders'>"
p818
sg41
S'Dimension[-1]'
p819
sg43
(dp820
S'outport'
p821
I00
sS'quietval'
p822
Nsg47
(dp823
g629
I1
sg119
I1
sg630
I2
sg631
I1
sg118
I1
ssS'min'
p824
I1
sS'max'
p825
I2
sS'collapsed'
p826
I00
sS'inport'
p827
I00
sS'visible'
p828
I01
sS'id'
p829
I139909182725472
ssa(dp830
g39
S"<class '/opt/gpi/node/core/shapers/GPI/Reduce_GPI.ReduceSliders'>"
p831
sg41
S'Dimension[-2]'
p832
sg43
(dp833
S'outport'
p834
I00
sS'quietval'
p835
Nsg47
(dp836
g629
I8
sg119
I8
sg630
I3
sg631
I5
sg118
I1
ssS'min'
p837
I1
sS'max'
p838
I8
sS'collapsed'
p839
I00
sS'inport'
p840
I00
sS'visible'
p841
I01
sS'id'
p842
I139909182738816
ssa(dp843
g39
S"<class '/opt/gpi/node/core/shapers/GPI/Reduce_GPI.ReduceSliders'>"
p844
sg41
S'Dimension[-3]'
p845
sg43
(dp846
S'outport'
p847
I00
sS'quietval'
p848
Nsg47
(dp849
g629
I180
sg119
I180
sg630
I3
sg631
I91
sg118
I1
ssS'min'
p850
I1
sS'max'
p851
I180
sS'collapsed'
p852
I00
sS'inport'
p853
I00
sS'visible'
p854
I01
sS'id'
p855
I139909182747920
ssa(dp856
g39
S"<class '/opt/gpi/node/core/shapers/GPI/Reduce_GPI.ReduceSliders'>"
p857
sg41
S'Dimension[-4]'
p858
sg43
(dp859
S'outport'
p860
I00
sS'quietval'
p861
Nsg47
(dp862
g629
I230
sg119
I230
sg630
I3
sg631
I116
sg118
I1
ssS'min'
p863
I1
sS'max'
p864
I230
sS'collapsed'
p865
I00
sS'inport'
p866
I00
sS'visible'
p867
I01
sS'id'
p868
I139909182752928
ssa(dp869
g39
S"<class '/opt/gpi/node/core/shapers/GPI/Reduce_GPI.ReduceSliders'>"
p870
sg41
S'Dimension[-5]'
p871
sg43
(dp872
S'outport'
p873
I00
sS'quietval'
p874
Nsg47
(dp875
g629
I1
sg119
I1
sg630
I3
sg631
I1
sg118
I1
ssS'min'
p876
I1
sS'max'
p877
I1
sS'collapsed'
p878
I00
sS'inport'
p879
I00
sS'visible'
p880
I01
sS'id'
p881
I139909182762032
ssa(dp882
g39
S"<class '/opt/gpi/node/core/shapers/GPI/Reduce_GPI.ReduceSliders'>"
p883
sg41
S'Dimension[-6]'
p884
sg43
(dp885
S'outport'
p886
I00
sS'quietval'
p887
Nsg47
(dp888
g629
I100
sg119
I100
sg630
I3
sg631
I51
sg118
I1
ssS'min'
p889
I1
sS'max'
p890
I100
sS'collapsed'
p891
I00
sS'inport'
p892
I00
sS'visible'
p893
I00
sS'id'
p894
I139909182767184
ssa(dp895
g39
S"<class '/opt/gpi/node/core/shapers/GPI/Reduce_GPI.ReduceSliders'>"
p896
sg41
S'Dimension[-7]'
p897
sg43
(dp898
S'outport'
p899
I00
sS'quietval'
p900
Nsg47
(dp901
g629
I100
sg119
I100
sg630
I3
sg631
I51
sg118
I1
ssS'min'
p902
I1
sS'max'
p903
I100
sS'collapsed'
p904
I00
sS'inport'
p905
I00
sS'visible'
p906
I00
sS'id'
p907
I139909182772192
ssa(dp908
g39
S"<class '/opt/gpi/node/core/shapers/GPI/Reduce_GPI.ReduceSliders'>"
p909
sg41
S'Dimension[-8]'
p910
sg43
(dp911
S'outport'
p912
I00
sS'quietval'
p913
Nsg47
(dp914
g629
I100
sg119
I100
sg630
I3
sg631
I51
sg118
I1
ssS'min'
p915
I1
sS'max'
p916
I100
sS'collapsed'
p917
I00
sS'inport'
p918
I00
sS'visible'
p919
I00
sS'id'
p920
I139909182777200
ssa(dp921
g39
S"<class '/opt/gpi/node/core/shapers/GPI/Reduce_GPI.ReduceSliders'>"
p922
sg41
S'Dimension[-9]'
p923
sg43
(dp924
S'outport'
p925
I00
sS'quietval'
p926
Nsg47
(dp927
g629
I100
sg119
I100
sg630
I3
sg631
I51
sg118
I1
ssS'min'
p928
I1
sS'max'
p929
I100
sS'collapsed'
p930
I00
sS'inport'
p931
I00
sS'visible'
p932
I00
sS'id'
p933
I139909182257920
ssa(dp934
g39
S"<class '/opt/gpi/node/core/shapers/GPI/Reduce_GPI.ReduceSliders'>"
p935
sg41
S'Dimension[-10]'
p936
sg43
(dp937
S'outport'
p938
I00
sS'quietval'
p939
Nsg47
(dp940
g629
I100
sg119
I100
sg630
I3
sg631
I51
sg118
I1
ssS'min'
p941
I1
sS'max'
p942
I100
sS'collapsed'
p943
I00
sS'inport'
p944
I00
sS'visible'
p945
I00
sS'id'
p946
I139909182262928
ssa(dp947
g39
S"<class 'gpi.widgets.PushButton'>"
p948
sg41
g757
sg43
(dp949
S'outport'
p950
I00
sS'quietval'
p951
Nsg47
I00
sS'collapsed'
p952
I00
sS'inport'
p953
I00
sS'visible'
p954
I01
sS'toggle'
p955
I01
sS'button_title'
p956
g74
sS'id'
p957
I139909182268080
ssa(dp958
g39
S"<class 'gpi.widgets.PushButton'>"
p959
sg41
g769
sg43
(dp960
S'outport'
p961
I00
sS'quietval'
p962
Nsg47
I01
sS'collapsed'
p963
I00
sS'inport'
p964
I00
sS'visible'
p965
I01
sS'toggle'
p966
I01
sS'button_title'
p967
g74
sS'id'
p968
I139909182268840
ssasg211
g779
ssg213
S'0.20643055439'
p969
sg41
g781
sg216
(lp970
F-190.4053279914425
aF19.806531628769537
asg218
(lp971
(dp972
g221
g222
sg223
I0
sg224
(lp973
(dp974
g227
(dp975
g229
g222
sg230
I139909182269600
sg231
I0
sg232
I139909182722432
ssg233
(dp976
g229
S'sensitivities'
p977
sg230
I139909181788696
sg231
I0
sg232
I139909182087856
ssasg236
Nsg237
I65540
sg238
I100
sg239
I139909182269600
sa(dp978
g221
g235
sg223
I0
sg224
(lp979
(dp980
g227
(dp981
g229
g977
sg230
I139909184404984
sg231
I1
sg232
I139909184367816
ssg233
(dp982
g229
g235
sg230
I139909182269752
sg231
I0
sg232
I139909182722432
ssa(dp983
g227
(dp984
g229
S'coil_maps'
p985
sg230
I139909184456712
sg231
I1
sg232
I139909184419544
ssg233
(dp986
g229
g235
sg230
I139909182269752
sg231
I0
sg232
I139909182722432
ssa(dp987
g227
(dp988
g229
g222
sg230
I139909182351672
sg231
I0
sg232
I139909182288408
ssg233
(dp989
g229
g235
sg230
I139909182269752
sg231
I0
sg232
I139909182722432
ssasg236
Nsg237
I65541
sg238
Nsg239
I139909182269752
sa(dp990
g221
g796
sg223
I1
sg224
(lp991
sg236
Nsg237
I65541
sg238
Nsg239
I139909182269904
sasg242
S'0.0174833536148'
p992
sg244
g799
sg239
I139909182722432
sg246
S'0.188947200775'
p993
sa(dp994
g34
(dp995
g36
(lp996
(dp997
g39
S"<class 'gpi.widgets.TextBox'>"
p998
sg41
S'I/O Info:'
p999
sg43
(dp1000
S'openExternalLinks'
p1001
I00
sS'outport'
p1002
I00
sS'quietval'
p1003
Nsg47
S'created: 11/10/2015\naccessed: 11/10/2015\nmodified: 11/10/2015\nUID: 1000\nGID: 1000\nfile size (bytes): 2649600\ndimensions: [1, 230, 180, 8]\ntype: complex64\n'
p1004
sS'collapsed'
p1005
I00
sS'inport'
p1006
I00
sS'visible'
p1007
I01
sS'wordwrap'
p1008
I00
sS'id'
p1009
I139909183477464
ssa(dp1010
g39
S"<class 'gpi.widgets.OpenFileBrowser'>"
p1011
sg41
S'File Browser'
p1012
sg43
(dp1013
S'outport'
p1014
I00
sS'quietval'
p1015
Nsg47
S'/home/gpi/data/bart/espirit-matlab-examples/data/und2x2.cfl'
p1016
sS'collapsed'
p1017
I00
sS'inport'
p1018
I00
sS'visible'
p1019
I01
sS'id'
p1020
I139909183477920
ssa(dp1021
g39
S"<class 'gpi.widgets.PushButton'>"
p1022
sg41
S'Squeeze'
p1023
sg43
(dp1024
S'outport'
p1025
I00
sS'quietval'
p1026
Nsg47
I00
sS'collapsed'
p1027
I00
sS'inport'
p1028
I00
sS'visible'
p1029
I01
sS'toggle'
p1030
I01
sS'button_title'
p1031
g74
sS'id'
p1032
I139909183478528
ssasg211
S'und2x2'
p1033
ssg213
S'0.070334037145'
p1034
sg41
S'ReadCFL'
p1035
sg216
(lp1036
F34.78080926640477
aF-350.6531922629865
asg218
(lp1037
(dp1038
g221
g235
sg223
I0
sg224
(lp1039
(dp1040
g227
(dp1041
g229
S'input'
p1042
sg230
I139909280922672
sg231
I0
sg232
I139909282962936
ssg233
(dp1043
g229
g235
sg230
I139909183479288
sg231
I0
sg232
I139909183462448
ssa(dp1044
g227
(dp1045
g229
S'kspace'
p1046
sg230
I139909184404832
sg231
I0
sg232
I139909184367816
ssg233
(dp1047
g229
g235
sg230
I139909183479288
sg231
I0
sg232
I139909183462448
ssa(dp1048
g227
(dp1049
g229
g1046
sg230
I139909184456560
sg231
I0
sg232
I139909184419544
ssg233
(dp1050
g229
g235
sg230
I139909183479288
sg231
I0
sg232
I139909183462448
ssa(dp1051
g227
(dp1052
g229
g1046
sg230
I139909184108552
sg231
I0
sg232
I139909184591424
ssg233
(dp1053
g229
g235
sg230
I139909183479288
sg231
I0
sg232
I139909183462448
ssa(dp1054
g227
(dp1055
g229
g222
sg230
I139909183460016
sg231
I0
sg232
I139909183361560
ssg233
(dp1056
g229
g235
sg230
I139909183479288
sg231
I0
sg232
I139909183462448
ssa(dp1057
g227
(dp1058
g229
g222
sg230
I139909182137920
sg231
I0
sg232
I139909182088616
ssg233
(dp1059
g229
g235
sg230
I139909183479288
sg231
I0
sg232
I139909183462448
ssa(dp1060
g227
(dp1061
g229
g1046
sg230
I139909181788544
sg231
I0
sg232
I139909182087856
ssg233
(dp1062
g229
g235
sg230
I139909183479288
sg231
I0
sg232
I139909183462448
ssa(dp1063
g227
(dp1064
g229
g1046
sg230
I139909182699224
sg231
I0
sg232
I139909182678592
ssg233
(dp1065
g229
g235
sg230
I139909183479288
sg231
I0
sg232
I139909183462448
ssasg236
Nsg237
I65541
sg238
Nsg239
I139909183479288
sasg242
S'0.0680850926982'
p1066
sg244
S'bart.gpi.ReadCFL'
p1067
sg239
I139909183462448
sg246
S'0.0279309749603'
p1068
sa(dp1069
g34
(dp1070
g36
(lp1071
(dp1072
g39
S"<class 'gpi.widgets.ExclusivePushButtons'>"
p1073
sg41
S'Mode'
p1074
sg43
(dp1075
S'outport'
p1076
I00
sS'quietval'
p1077
Nsg47
I0
sS'collapsed'
p1078
I00
sS'inport'
p1079
I00
sS'visible'
p1080
I01
sS'id'
p1081
I139909184482200
ssa(dp1082
g39
S"<class 'gpi.widgets.ExclusiveRadioButtons'>"
p1083
sg41
S'Operation'
p1084
sg43
(dp1085
S'outport'
p1086
I00
sS'quietval'
p1087
Nsg47
I1
sS'collapsed'
p1088
I00
sS'inport'
p1089
I00
sS'visible'
p1090
I01
sS'id'
p1091
I139909184482960
ssa(dp1092
g39
S"<class 'gpi.widgets.DoubleSpinBox'>"
p1093
sg41
S'Scalar'
p1094
sg43
(dp1095
S'outport'
p1096
I00
sS'quietval'
p1097
Nsg47
F0.0
sS'min'
p1098
F-1.7976931348623157e+308
sS'max'
p1099
F1.7976931348623157e+308
sS'collapsed'
p1100
I00
sS'wrapping'
p1101
I00
sS'immediate'
p1102
I00
sS'label'
p1103
g74
sS'singlestep'
p1104
F1.0
sS'visible'
p1105
I00
sS'inport'
p1106
I00
sS'decimals'
p1107
I5
sS'id'
p1108
I139909184499792
ssa(dp1109
g39
S"<class 'gpi.widgets.PushButton'>"
p1110
sg41
S'compute'
p1111
sg43
(dp1112
S'outport'
p1113
I00
sS'quietval'
p1114
Nsg47
I01
sS'collapsed'
p1115
I00
sS'inport'
p1116
I00
sS'visible'
p1117
I01
sS'toggle'
p1118
I01
sS'button_title'
p1119
g74
sS'id'
p1120
I139909184500704
ssasg211
g779
ssg213
S'0.228965580463'
p1121
sg41
S'Math'
p1122
sg216
(lp1123
F-91.66528579858631
aF256.94895769656284
asg218
(lp1124
(dp1125
g221
S'inLeft'
p1126
sg223
I0
sg224
(lp1127
(dp1128
g227
(dp1129
g229
g1126
sg230
I139909184501464
sg231
I0
sg232
I139909184479616
ssg233
(dp1130
g229
S'output'
p1131
sg230
I139909184405136
sg231
I0
sg232
I139909184367816
ssasg236
Nsg237
I65540
sg238
I200
sg239
I139909184501464
sa(dp1132
g221
S'inRight'
p1133
sg223
I1
sg224
(lp1134
(dp1135
g227
(dp1136
g229
g1133
sg230
I139909184501616
sg231
I1
sg232
I139909184479616
ssg233
(dp1137
g229
g235
sg230
I139909181925232
sg231
I0
sg232
I139909181790976
ssasg236
Nsg237
I65540
sg238
I200
sg239
I139909184501616
sa(dp1138
g221
g235
sg223
I0
sg224
(lp1139
(dp1140
g227
(dp1141
g229
g222
sg230
I139909184181216
sg231
I0
sg232
I139909184136008
ssg233
(dp1142
g229
g235
sg230
I139909184501768
sg231
I0
sg232
I139909184479616
ssasg236
Nsg237
I65541
sg238
Nsg239
I139909184501768
sasg242
S'0.0811769974028'
p1143
sg244
S'core.math.Math'
p1144
sg239
I139909184479616
sg246
S'0.208474159241'
p1145
sa(dp1146
g34
(dp1147
g36
(lp1148
(dp1149
g39
S"<class 'gpi.widgets.TextBox'>"
p1150
sg41
S'I/O Info:'
p1151
sg43
(dp1152
S'openExternalLinks'
p1153
I00
sS'outport'
p1154
I00
sS'quietval'
p1155
Nsg47
S'input: (1, 230, 180, 8)\noutput: (230, 180, 8)'
p1156
sS'collapsed'
p1157
I00
sS'inport'
p1158
I00
sS'visible'
p1159
I01
sS'wordwrap'
p1160
I00
sS'id'
p1161
I139909182290992
ssa(dp1162
g39
S"<class '/opt/gpi/node/core/shapers/GPI/Reduce_GPI.ReduceSliders'>"
p1163
sg41
S'Dimension[-1]'
p1164
sg43
(dp1165
S'outport'
p1166
I00
sS'quietval'
p1167
Nsg47
(dp1168
g629
I8
sg119
I8
sg630
I3
sg631
I5
sg118
I1
ssS'min'
p1169
I1
sS'max'
p1170
I8
sS'collapsed'
p1171
I00
sS'inport'
p1172
I00
sS'visible'
p1173
I01
sS'id'
p1174
I139909182291448
ssa(dp1175
g39
S"<class '/opt/gpi/node/core/shapers/GPI/Reduce_GPI.ReduceSliders'>"
p1176
sg41
S'Dimension[-2]'
p1177
sg43
(dp1178
S'outport'
p1179
I00
sS'quietval'
p1180
Nsg47
(dp1181
g629
I180
sg119
I180
sg630
I3
sg631
I91
sg118
I1
ssS'min'
p1182
I1
sS'max'
p1183
I180
sS'collapsed'
p1184
I00
sS'inport'
p1185
I00
sS'visible'
p1186
I01
sS'id'
p1187
I139909182300696
ssa(dp1188
g39
S"<class '/opt/gpi/node/core/shapers/GPI/Reduce_GPI.ReduceSliders'>"
p1189
sg41
S'Dimension[-3]'
p1190
sg43
(dp1191
S'outport'
p1192
I00
sS'quietval'
p1193
Nsg47
(dp1194
g629
I230
sg119
I230
sg630
I3
sg631
I116
sg118
I1
ssS'min'
p1195
I1
sS'max'
p1196
I230
sS'collapsed'
p1197
I00
sS'inport'
p1198
I00
sS'visible'
p1199
I01
sS'id'
p1200
I139909182305704
ssa(dp1201
g39
S"<class '/opt/gpi/node/core/shapers/GPI/Reduce_GPI.ReduceSliders'>"
p1202
sg41
S'Dimension[-4]'
p1203
sg43
(dp1204
S'outport'
p1205
I00
sS'quietval'
p1206
Nsg47
(dp1207
g629
I1
sg119
I1
sg630
I2
sg631
I1
sg118
I1
ssS'min'
p1208
I1
sS'max'
p1209
I1
sS'collapsed'
p1210
I00
sS'inport'
p1211
I00
sS'visible'
p1212
I01
sS'id'
p1213
I139909182310712
ssa(dp1214
g39
S"<class '/opt/gpi/node/core/shapers/GPI/Reduce_GPI.ReduceSliders'>"
p1215
sg41
S'Dimension[-5]'
p1216
sg43
(dp1217
S'outport'
p1218
I00
sS'quietval'
p1219
Nsg47
(dp1220
g629
I1
sg119
I1
sg630
I3
sg631
I1
sg118
I1
ssS'min'
p1221
I1
sS'max'
p1222
I1
sS'collapsed'
p1223
I00
sS'inport'
p1224
I00
sS'visible'
p1225
I00
sS'id'
p1226
I139909182319816
ssa(dp1227
g39
S"<class '/opt/gpi/node/core/shapers/GPI/Reduce_GPI.ReduceSliders'>"
p1228
sg41
S'Dimension[-6]'
p1229
sg43
(dp1230
S'outport'
p1231
I00
sS'quietval'
p1232
Nsg47
(dp1233
g629
I100
sg119
I100
sg630
I3
sg631
I51
sg118
I1
ssS'min'
p1234
I1
sS'max'
p1235
I100
sS'collapsed'
p1236
I00
sS'inport'
p1237
I00
sS'visible'
p1238
I00
sS'id'
p1239
I139909182324968
ssa(dp1240
g39
S"<class '/opt/gpi/node/core/shapers/GPI/Reduce_GPI.ReduceSliders'>"
p1241
sg41
S'Dimension[-7]'
p1242
sg43
(dp1243
S'outport'
p1244
I00
sS'quietval'
p1245
Nsg47
(dp1246
g629
I100
sg119
I100
sg630
I3
sg631
I51
sg118
I1
ssS'min'
p1247
I1
sS'max'
p1248
I100
sS'collapsed'
p1249
I00
sS'inport'
p1250
I00
sS'visible'
p1251
I00
sS'id'
p1252
I139909182329976
ssa(dp1253
g39
S"<class '/opt/gpi/node/core/shapers/GPI/Reduce_GPI.ReduceSliders'>"
p1254
sg41
S'Dimension[-8]'
p1255
sg43
(dp1256
S'outport'
p1257
I00
sS'quietval'
p1258
Nsg47
(dp1259
g629
I100
sg119
I100
sg630
I3
sg631
I51
sg118
I1
ssS'min'
p1260
I1
sS'max'
p1261
I100
sS'collapsed'
p1262
I00
sS'inport'
p1263
I00
sS'visible'
p1264
I00
sS'id'
p1265
I139909182334984
ssa(dp1266
g39
S"<class '/opt/gpi/node/core/shapers/GPI/Reduce_GPI.ReduceSliders'>"
p1267
sg41
S'Dimension[-9]'
p1268
sg43
(dp1269
S'outport'
p1270
I00
sS'quietval'
p1271
Nsg47
(dp1272
g629
I100
sg119
I100
sg630
I3
sg631
I51
sg118
I1
ssS'min'
p1273
I1
sS'max'
p1274
I100
sS'collapsed'
p1275
I00
sS'inport'
p1276
I00
sS'visible'
p1277
I00
sS'id'
p1278
I139909182339992
ssa(dp1279
g39
S"<class '/opt/gpi/node/core/shapers/GPI/Reduce_GPI.ReduceSliders'>"
p1280
sg41
S'Dimension[-10]'
p1281
sg43
(dp1282
S'outport'
p1283
I00
sS'quietval'
p1284
Nsg47
(dp1285
g629
I100
sg119
I100
sg630
I3
sg631
I51
sg118
I1
ssS'min'
p1286
I1
sS'max'
p1287
I100
sS'collapsed'
p1288
I00
sS'inport'
p1289
I00
sS'visible'
p1290
I00
sS'id'
p1291
I139909182345000
ssa(dp1292
g39
S"<class 'gpi.widgets.PushButton'>"
p1293
sg41
g757
sg43
(dp1294
S'outport'
p1295
I00
sS'quietval'
p1296
Nsg47
I00
sS'collapsed'
p1297
I00
sS'inport'
p1298
I00
sS'visible'
p1299
I01
sS'toggle'
p1300
I01
sS'button_title'
p1301
g74
sS'id'
p1302
I139909182350152
ssa(dp1303
g39
S"<class 'gpi.widgets.PushButton'>"
p1304
sg41
g769
sg43
(dp1305
S'outport'
p1306
I00
sS'quietval'
p1307
Nsg47
I01
sS'collapsed'
p1308
I00
sS'inport'
p1309
I00
sS'visible'
p1310
I01
sS'toggle'
p1311
I01
sS'button_title'
p1312
g74
sS'id'
p1313
I139909182350912
ssasg211
g779
ssg213
S'0.24373793602'
p1314
sg41
g781
sg216
(lp1315
F-190.4053279914425
aF49.80653162876955
asg218
(lp1316
(dp1317
g221
g222
sg223
I0
sg224
(lp1318
(dp1319
g227
(dp1320
g229
g222
sg230
I139909182351672
sg231
I0
sg232
I139909182288408
ssg233
(dp1321
g229
g235
sg230
I139909182269752
sg231
I0
sg232
I139909182722432
ssasg236
Nsg237
I65540
sg238
I100
sg239
I139909182351672
sa(dp1322
g221
g235
sg223
I0
sg224
(lp1323
(dp1324
g227
(dp1325
g229
g222
sg230
I139909164564712
sg231
I0
sg232
I139909164531344
ssg233
(dp1326
g229
g235
sg230
I139909182351824
sg231
I0
sg232
I139909182288408
ssasg236
Nsg237
I65541
sg238
Nsg239
I139909182351824
sa(dp1327
g221
g796
sg223
I1
sg224
(lp1328
sg236
Nsg237
I65541
sg238
Nsg239
I139909182351976
sasg242
S'0.0502369403839'
p1329
sg244
g799
sg239
I139909182288408
sg246
S'0.193500995636'
p1330
sa(dp1331
g34
(dp1332
g36
(lp1333
(dp1334
g39
S"<class 'gpi.widgets.ExclusivePushButtons'>"
p1335
sg41
S'Complex Display'
p1336
sg43
(dp1337
S'outport'
p1338
I00
sS'quietval'
p1339
Nsg47
I4
sS'collapsed'
p1340
I00
sS'inport'
p1341
I00
sS'visible'
p1342
I00
sS'id'
p1343
I139909182372912
ssa(dp1344
g39
S"<class 'gpi.widgets.ExclusivePushButtons'>"
p1345
sg41
S'Color Map'
p1346
sg43
(dp1347
S'outport'
p1348
I00
sS'quietval'
p1349
Nsg47
I0
sS'collapsed'
p1350
I01
sS'inport'
p1351
I00
sS'visible'
p1352
I01
sS'id'
p1353
I139909182398696
ssa(dp1354
g39
S"<class 'gpi.widgets.SpinBox'>"
p1355
sg41
S'Edge Pixels'
p1356
sg43
(dp1357
S'outport'
p1358
I00
sS'quietval'
p1359
Nsg47
I0
sS'min'
p1360
I0
sS'max'
p1361
I2147483647
sS'collapsed'
p1362
I00
sS'wrapping'
p1363
I00
sS'immediate'
p1364
I00
sS'label'
p1365
g74
sS'singlestep'
p1366
I1
sS'visible'
p1367
I00
sS'inport'
p1368
I00
sS'id'
p1369
I139909182399912
ssa(dp1370
g39
S"<class 'gpi.widgets.SpinBox'>"
p1371
sg41
S'Black Pixels'
p1372
sg43
(dp1373
S'outport'
p1374
I00
sS'quietval'
p1375
Nsg47
I0
sS'min'
p1376
I0
sS'max'
p1377
I2147483647
sS'collapsed'
p1378
I00
sS'wrapping'
p1379
I00
sS'immediate'
p1380
I00
sS'label'
p1381
g74
sS'singlestep'
p1382
I1
sS'visible'
p1383
I00
sS'inport'
p1384
I00
sS'id'
p1385
I139909182400824
ssa(dp1386
g39
S"<class 'gpi.widgets.DisplayBox'>"
p1387
sg41
S'Viewport:'
p1388
sg43
(dp1389
S'outport'
p1390
I00
sS'scale'
p1391
F1.0
sS'quietval'
p1392
Nsg47
NsS'collapsed'
p1393
I00
sS'interp'
p1394
I00
sS'inport'
p1395
I00
sS'visible'
p1396
I01
sS'noscroll'
p1397
I01
sS'points'
p1398
NsS'line'
p1399
NsS'id'
p1400
I139909182401736
ssa(dp1401
g39
S"<class '/opt/gpi/node/core/display/GPI/ImageDisplay_GPI.WindowLevel'>"
p1402
sg41
S'L W F C:'
p1403
sg43
(dp1404
S'outport'
p1405
I00
sS'quietval'
p1406
Nsg47
(dp1407
g117
I100
sg118
I0
sg119
I100
sg120
I50
ssS'min'
p1408
I0
sS'max'
p1409
I100
sS'collapsed'
p1410
I00
sS'inport'
p1411
I00
sS'visible'
p1412
I01
sS'id'
p1413
I139909182408408
ssa(dp1414
g39
S"<class 'gpi.widgets.ExclusivePushButtons'>"
p1415
sg41
S'Scalar Display'
p1416
sg43
(dp1417
S'outport'
p1418
I00
sS'quietval'
p1419
Nsg47
I0
sS'collapsed'
p1420
I00
sS'inport'
p1421
I00
sS'visible'
p1422
I01
sS'id'
p1423
I139909182413264
ssa(dp1424
g39
S"<class 'gpi.widgets.DoubleSpinBox'>"
p1425
sg41
g139
sg43
(dp1426
S'outport'
p1427
I00
sS'quietval'
p1428
Nsg47
F1.0
sS'min'
p1429
F0.1
sS'max'
p1430
F10.0
sS'collapsed'
p1431
I00
sS'wrapping'
p1432
I00
sS'immediate'
p1433
I00
sS'label'
p1434
g74
sS'singlestep'
p1435
F0.05
sS'visible'
p1436
I01
sS'inport'
p1437
I00
sS'decimals'
p1438
I3
sS'id'
p1439
I139909182414024
ssa(dp1440
g39
S"<class 'gpi.widgets.ExclusivePushButtons'>"
p1441
sg41
S'Zero Ref'
p1442
sg43
(dp1443
S'outport'
p1444
I00
sS'quietval'
p1445
Nsg47
I0
sS'collapsed'
p1446
I00
sS'inport'
p1447
I00
sS'visible'
p1448
I01
sS'id'
p1449
I139909182423272
ssa(dp1450
g39
S"<class 'gpi.widgets.PushButton'>"
p1451
sg41
S'Fix Range'
p1452
sg43
(dp1453
S'outport'
p1454
I00
sS'quietval'
p1455
Nsg47
I00
sS'collapsed'
p1456
I00
sS'inport'
p1457
I00
sS'visible'
p1458
I01
sS'toggle'
p1459
I01
sS'button_title'
p1460
VAuto-Range On
p1461
sS'id'
p1462
I139909182424184
ssa(dp1463
g39
S"<class 'gpi.widgets.DoubleSpinBox'>"
p1464
sg41
S'Range Min'
p1465
sg43
(dp1466
S'outport'
p1467
I00
sS'quietval'
p1468
Nsg47
F0.0
sS'min'
p1469
F-1.7976931348623157e+308
sS'max'
p1470
F1.7976931348623157e+308
sS'collapsed'
p1471
I00
sS'wrapping'
p1472
I00
sS'immediate'
p1473
I00
sS'label'
p1474
g74
sS'singlestep'
p1475
F1.0
sS'visible'
p1476
I01
sS'inport'
p1477
I00
sS'decimals'
p1478
I2
sS'id'
p1479
I139909182424944
ssa(dp1480
g39
S"<class 'gpi.widgets.DoubleSpinBox'>"
p1481
sg41
S'Range Max'
p1482
sg43
(dp1483
S'outport'
p1484
I00
sS'quietval'
p1485
Nsg47
F0.03
sS'min'
p1486
F-1.7976931348623157e+308
sS'max'
p1487
F1.7976931348623157e+308
sS'collapsed'
p1488
I00
sS'wrapping'
p1489
I00
sS'immediate'
p1490
I00
sS'label'
p1491
g74
sS'singlestep'
p1492
F1.0
sS'visible'
p1493
I01
sS'inport'
p1494
I00
sS'decimals'
p1495
I2
sS'id'
p1496
I139909182425856
ssasg211
S'errsos_direct'
p1497
ssg213
S'0.0022184252739'
p1498
sg41
g215
sg216
(lp1499
F179.5168019960312
aF263.2947419368949
asg218
(lp1500
(dp1501
g221
g222
sg223
I0
sg224
(lp1502
(dp1503
g227
(dp1504
g229
g222
sg230
I139909182426768
sg231
I0
sg232
I139909313196112
ssg233
(dp1505
g229
g235
sg230
I139909038193712
sg231
I0
sg232
I139909038113608
ssasg236
Nsg237
I65540
sg238
I100
sg239
I139909182426768
sa(dp1506
g221
g235
sg223
I0
sg224
(lp1507
sg236
Nsg237
I65541
sg238
Nsg239
I139909182426920
sasg242
S'0.00123311857387'
p1508
sg244
g245
sg239
I139909313196112
sg246
S'0.00281882286072'
p1509
sa(dp1510
g34
(dp1511
g36
(lp1512
(dp1513
g39
S"<class 'gpi.widgets.TextBox'>"
p1514
sg41
S'Status'
p1515
sg43
(dp1516
S'openExternalLinks'
p1517
I00
sS'outport'
p1518
I00
sS'quietval'
p1519
Nsg47
S'Ready'
p1520
sS'collapsed'
p1521
I00
sS'inport'
p1522
I00
sS'visible'
p1523
I01
sS'wordwrap'
p1524
I00
sS'id'
p1525
I139909279968456
ssa(dp1526
g39
S"<class 'gpi.widgets.TextBox'>"
p1527
sg41
S'Info'
p1528
sg43
(dp1529
S'openExternalLinks'
p1530
I00
sS'outport'
p1531
I00
sS'quietval'
p1532
Nsg47
S'input: (1, 230, 180, 8)\noutput: (1, 230, 180)'
p1533
sS'collapsed'
p1534
I00
sS'inport'
p1535
I00
sS'visible'
p1536
I01
sS'wordwrap'
p1537
I00
sS'id'
p1538
I139909279968912
ssa(dp1539
g39
S"<class 'gpi.widgets.ExclusiveRadioButtons'>"
p1540
sg41
g1084
sg43
(dp1541
S'outport'
p1542
I00
sS'quietval'
p1543
Nsg47
I5
sS'collapsed'
p1544
I00
sS'inport'
p1545
I00
sS'visible'
p1546
I01
sS'id'
p1547
I139909184823528
ssa(dp1548
g39
S"<class 'gpi.widgets.PushButton'>"
p1549
sg41
g769
sg43
(dp1550
S'outport'
p1551
I00
sS'quietval'
p1552
Nsg47
I01
sS'collapsed'
p1553
I00
sS'inport'
p1554
I00
sS'visible'
p1555
I01
sS'toggle'
p1556
I01
sS'button_title'
p1557
g74
sS'id'
p1558
I139909184825656
ssa(dp1559
g39
S"<class 'gpi.widgets.PushButton'>"
p1560
sg41
S'Collapse All'
p1561
sg43
(dp1562
S'outport'
p1563
I00
sS'quietval'
p1564
Nsg47
I00
sS'collapsed'
p1565
I00
sS'inport'
p1566
I00
sS'visible'
p1567
I01
sS'toggle'
p1568
I01
sS'button_title'
p1569
g74
sS'id'
p1570
I139909184826416
ssa(dp1571
g39
S"<class 'gpi.widgets.ExclusivePushButtons'>"
p1572
sg41
S'Dimension'
p1573
sg43
(dp1574
S'outport'
p1575
I00
sS'quietval'
p1576
Nsg47
I0
sS'collapsed'
p1577
I00
sS'inport'
p1578
I00
sS'visible'
p1579
I01
sS'id'
p1580
I139909184827176
ssa(dp1581
g39
S"<class 'gpi.widgets.PushButton'>"
p1582
sg41
S'Span Entire Dimension'
p1583
sg43
(dp1584
S'outport'
p1585
I00
sS'quietval'
p1586
Nsg47
I01
sS'collapsed'
p1587
I00
sS'inport'
p1588
I00
sS'visible'
p1589
I01
sS'toggle'
p1590
I01
sS'button_title'
p1591
g74
sS'id'
p1592
I139909184832328
ssa(dp1593
g39
S"<class 'gpi.widgets.Slider'>"
p1594
sg41
S'Dimension Start_Index'
p1595
sg43
(dp1596
S'outport'
p1597
I00
sS'quietval'
p1598
Nsg47
I0
sS'min'
p1599
I0
sS'max'
p1600
I8
sS'collapsed'
p1601
I00
sS'inport'
p1602
I00
sS'visible'
p1603
I00
sS'id'
p1604
I139909184833088
ssa(dp1605
g39
S"<class 'gpi.widgets.Slider'>"
p1606
sg41
S'Dimension Stop_Index'
p1607
sg43
(dp1608
S'outport'
p1609
I00
sS'quietval'
p1610
Nsg47
I0
sS'min'
p1611
I0
sS'max'
p1612
I8
sS'collapsed'
p1613
I00
sS'inport'
p1614
I00
sS'visible'
p1615
I00
sS'id'
p1616
I139909184834304
ssa(dp1617
g39
S"<class 'gpi.widgets.PushButton'>"
p1618
sg41
S'Non-Zero'
p1619
sg43
(dp1620
S'outport'
p1621
I00
sS'quietval'
p1622
Nsg47
I00
sS'collapsed'
p1623
I00
sS'inport'
p1624
I00
sS'visible'
p1625
I00
sS'toggle'
p1626
I01
sS'button_title'
p1627
g74
sS'id'
p1628
I139909282959440
ssasg211
g779
ssg213
S'0.279360055923'
p1629
sg41
S'Collapse'
p1630
sg216
(lp1631
F179.5168019960312
aF203.2947419368949
asg218
(lp1632
(dp1633
g221
g222
sg223
I0
sg224
(lp1634
(dp1635
g227
(dp1636
g229
g222
sg230
I139909282960200
sg231
I0
sg232
I139909279965720
ssg233
(dp1637
g229
g235
sg230
I139909184285288
sg231
I0
sg232
I139909184219448
ssasg236
Nsg237
I65540
sg238
I100
sg239
I139909282960200
sa(dp1638
g221
S'Collapse Single Dim'
p1639
sg223
I0
sg224
(lp1640
(dp1641
g227
(dp1642
g229
g222
sg230
I139909038193560
sg231
I0
sg232
I139909038113608
ssg233
(dp1643
g229
g1639
sg230
I139909282960352
sg231
I0
sg232
I139909279965720
ssasg236
Nsg237
I65541
sg238
Nsg239
I139909282960352
sa(dp1644
g221
S'Collapse All Dims'
p1645
sg223
I1
sg224
(lp1646
sg236
Nsg237
I65541
sg238
Nsg239
I139909282960504
sa(dp1647
g221
S'Max Val Index'
p1648
sg223
I2
sg224
(lp1649
sg236
Nsg237
I65541
sg238
Nsg239
I139909282960656
sasg242
S'0.0168525332355'
p1650
sg244
S'core.math.Collapse'
p1651
sg239
I139909279965720
sg246
S'0.282531023026'
p1652
sa(dp1653
g34
(dp1654
g36
(lp1655
(dp1656
g39
S"<class 'gpi.widgets.DoubleSpinBox'>"
p1657
sg41
S'threshold'
p1658
sg43
(dp1659
S'outport'
p1660
I00
sS'quietval'
p1661
Nsg47
F0.001
sS'min'
p1662
F0.0
sS'max'
p1663
F1.7976931348623157e+308
sS'collapsed'
p1664
I00
sS'wrapping'
p1665
I00
sS'immediate'
p1666
I00
sS'label'
p1667
g74
sS'singlestep'
p1668
F1.0
sS'visible'
p1669
I01
sS'inport'
p1670
I00
sS'decimals'
p1671
I5
sS'id'
p1672
I139909181765792
ssa(dp1673
g39
S"<class 'gpi.widgets.DoubleSpinBox'>"
p1674
sg41
S'crop value'
p1675
sg43
(dp1676
S'outport'
p1677
I00
sS'quietval'
p1678
Nsg47
F0.8
sS'min'
p1679
F0.0
sS'max'
p1680
F1.7976931348623157e+308
sS'collapsed'
p1681
I00
sS'wrapping'
p1682
I00
sS'immediate'
p1683
I00
sS'label'
p1684
g74
sS'singlestep'
p1685
F1.0
sS'visible'
p1686
I01
sS'inport'
p1687
I00
sS'decimals'
p1688
I2
sS'id'
p1689
I139909181766704
ssa(dp1690
g39
S"<class 'gpi.widgets.SpinBox'>"
p1691
sg41
S'kernel size'
p1692
sg43
(dp1693
S'outport'
p1694
I00
sS'quietval'
p1695
Nsg47
I6
sS'min'
p1696
I1
sS'max'
p1697
I2147483647
sS'collapsed'
p1698
I00
sS'wrapping'
p1699
I00
sS'immediate'
p1700
I00
sS'label'
p1701
g74
sS'singlestep'
p1702
I1
sS'visible'
p1703
I01
sS'inport'
p1704
I00
sS'id'
p1705
I139909181780048
ssa(dp1706
g39
S"<class 'gpi.widgets.SpinBox'>"
p1707
sg41
S'calibration size'
p1708
sg43
(dp1709
S'outport'
p1710
I00
sS'quietval'
p1711
Nsg47
I24
sS'min'
p1712
I1
sS'max'
p1713
I2147483647
sS'collapsed'
p1714
I00
sS'wrapping'
p1715
I00
sS'immediate'
p1716
I00
sS'label'
p1717
g74
sS'singlestep'
p1718
I1
sS'visible'
p1719
I01
sS'inport'
p1720
I00
sS'id'
p1721
I139909181780960
ssa(dp1722
g39
S"<class 'gpi.widgets.SpinBox'>"
p1723
sg41
S'number maps'
p1724
sg43
(dp1725
S'outport'
p1726
I00
sS'quietval'
p1727
Nsg47
I2
sS'min'
p1728
I1
sS'max'
p1729
I2147483647
sS'collapsed'
p1730
I00
sS'wrapping'
p1731
I00
sS'immediate'
p1732
I00
sS'label'
p1733
g74
sS'singlestep'
p1734
I1
sS'visible'
p1735
I01
sS'inport'
p1736
I00
sS'id'
p1737
I139909181781872
ssa(dp1738
g39
S"<class 'gpi.widgets.PushButton'>"
p1739
sg41
S'intensity correction'
p1740
sg43
(dp1741
S'outport'
p1742
I00
sS'quietval'
p1743
Nsg47
I00
sS'collapsed'
p1744
I00
sS'inport'
p1745
I00
sS'visible'
p1746
I01
sS'toggle'
p1747
I01
sS'button_title'
p1748
g74
sS'id'
p1749
I139909181782784
ssa(dp1750
g39
S"<class 'gpi.widgets.PushButton'>"
p1751
sg41
S'1st part only'
p1752
sg43
(dp1753
S'outport'
p1754
I00
sS'quietval'
p1755
Nsg47
I00
sS'collapsed'
p1756
I00
sS'inport'
p1757
I00
sS'visible'
p1758
I01
sS'toggle'
p1759
I01
sS'button_title'
p1760
g74
sS'id'
p1761
I139909181783544
ssasg211
g779
ssg213
S'1.05051505566'
p1762
sg41
S'ECalib'
p1763
sg216
(lp1764
F-190.4053279914425
aF-10.193468371230463
asg218
(lp1765
(dp1766
g221
g1046
sg223
I0
sg224
(lp1767
(dp1768
g227
(dp1769
g229
g1046
sg230
I139909181788544
sg231
I0
sg232
I139909182087856
ssg233
(dp1770
g229
g235
sg230
I139909183479288
sg231
I0
sg232
I139909183462448
ssasg236
Nsg237
I65540
sg238
I100
sg239
I139909181788544
sa(dp1771
g221
g977
sg223
I0
sg224
(lp1772
(dp1773
g227
(dp1774
g229
g222
sg230
I139909182269600
sg231
I0
sg232
I139909182722432
ssg233
(dp1775
g229
g977
sg230
I139909181788696
sg231
I0
sg232
I139909182087856
ssasg236
Nsg237
I65541
sg238
Nsg239
I139909181788696
sa(dp1776
g221
S'ev_maps'
p1777
sg223
I1
sg224
(lp1778
sg236
Nsg237
I65541
sg238
Nsg239
I139909181788848
sa(dp1779
g221
S'imgcov'
p1780
sg223
I2
sg224
(lp1781
sg236
Nsg237
I65541
sg238
Nsg239
I139909181789000
sasg242
S'0.117119908333'
p1782
sg244
S'bart.gpi.ECalib'
p1783
sg239
I139909182087856
sg246
S'0.933395147324'
p1784
sa(dp1785
g34
(dp1786
g36
(lp1787
(dp1788
g39
S"<class 'gpi.widgets.TextBox'>"
p1789
sg41
S'I/O Info:'
p1790
sg43
(dp1791
S'openExternalLinks'
p1792
I00
sS'outport'
p1793
I00
sS'quietval'
p1794
Nsg47
S'created: 11/10/2015\naccessed: 11/10/2015\nmodified: 11/10/2015\nUID: 1000\nGID: 1000\nfile size (bytes): 2649600\ndimensions: [1, 230, 180, 8]\ntype: complex64\n'
p1795
sS'collapsed'
p1796
I00
sS'inport'
p1797
I00
sS'visible'
p1798
I01
sS'wordwrap'
p1799
I00
sS'id'
p1800
I139909181923408
ssa(dp1801
g39
S"<class 'gpi.widgets.OpenFileBrowser'>"
p1802
sg41
S'File Browser'
p1803
sg43
(dp1804
S'outport'
p1805
I00
sS'quietval'
p1806
Nsg47
S'/home/gpi/data/bart/espirit-matlab-examples/data/full.cfl'
p1807
sS'collapsed'
p1808
I00
sS'inport'
p1809
I00
sS'visible'
p1810
I01
sS'id'
p1811
I139909181923864
ssa(dp1812
g39
S"<class 'gpi.widgets.PushButton'>"
p1813
sg41
g1023
sg43
(dp1814
S'outport'
p1815
I00
sS'quietval'
p1816
Nsg47
I00
sS'collapsed'
p1817
I00
sS'inport'
p1818
I00
sS'visible'
p1819
I01
sS'toggle'
p1820
I01
sS'button_title'
p1821
g74
sS'id'
p1822
I139909181924472
ssasg211
S'full'
p1823
ssg213
S'0.082151333491'
p1824
sg41
g1035
sg216
(lp1825
F247.24175991631586
aF-340.93573338806067
asg218
(lp1826
(dp1827
g221
g235
sg223
I0
sg224
(lp1828
(dp1829
g227
(dp1830
g229
g1133
sg230
I139909184501616
sg231
I1
sg232
I139909184479616
ssg233
(dp1831
g229
g235
sg230
I139909181925232
sg231
I0
sg232
I139909181790976
ssa(dp1832
g227
(dp1833
g229
g1133
sg230
I139909184212320
sg231
I1
sg232
I139909282962632
ssg233
(dp1834
g229
g235
sg230
I139909181925232
sg231
I0
sg232
I139909181790976
ssa(dp1835
g227
(dp1836
g229
g222
sg230
I139909181869712
sg231
I0
sg232
I139909181791736
ssg233
(dp1837
g229
g235
sg230
I139909181925232
sg231
I0
sg232
I139909181790976
ssasg236
Nsg237
I65541
sg238
Nsg239
I139909181925232
sasg242
S'0.0839151422745'
p1838
sg244
g1067
sg239
I139909181790976
sg246
S'0.0341429710388'
p1839
sa(dp1840
g34
(dp1841
g36
(lp1842
(dp1843
g39
S"<class '/opt/gpi/node/core/math/GPI/FFTW_GPI.FFTW_GROUP'>"
p1844
sg41
S'Dimension[-1]'
p1845
sg43
(dp1846
S'outport'
p1847
I00
sS'quietval'
p1848
Nsg47
(dp1849
S'length'
p1850
I8
sS'in_len'
p1851
I8
sg1111
I00
ssS'collapsed'
p1852
I00
sS'inport'
p1853
I00
sS'visible'
p1854
I01
sS'id'
p1855
I139909184138592
ssa(dp1856
g39
S"<class '/opt/gpi/node/core/math/GPI/FFTW_GPI.FFTW_GROUP'>"
p1857
sg41
S'Dimension[-2]'
p1858
sg43
(dp1859
S'outport'
p1860
I00
sS'quietval'
p1861
Nsg47
(dp1862
g1850
I180
sg1851
I180
sg1111
I01
ssS'collapsed'
p1863
I00
sS'inport'
p1864
I00
sS'visible'
p1865
I01
sS'id'
p1866
I139909184157096
ssa(dp1867
g39
S"<class '/opt/gpi/node/core/math/GPI/FFTW_GPI.FFTW_GROUP'>"
p1868
sg41
S'Dimension[-3]'
p1869
sg43
(dp1870
S'outport'
p1871
I00
sS'quietval'
p1872
Nsg47
(dp1873
g1850
I230
sg1851
I230
sg1111
I01
ssS'collapsed'
p1874
I00
sS'inport'
p1875
I00
sS'visible'
p1876
I01
sS'id'
p1877
I139909184159072
ssa(dp1878
g39
S"<class '/opt/gpi/node/core/math/GPI/FFTW_GPI.FFTW_GROUP'>"
p1879
sg41
S'Dimension[-4]'
p1880
sg43
(dp1881
S'outport'
p1882
I00
sS'quietval'
p1883
Nsg47
(dp1884
g1850
I1
sg1851
I1
sg1111
I00
ssS'collapsed'
p1885
I00
sS'inport'
p1886
I00
sS'visible'
p1887
I01
sS'id'
p1888
I139909184169384
ssa(dp1889
g39
S"<class '/opt/gpi/node/core/math/GPI/FFTW_GPI.FFTW_GROUP'>"
p1890
sg41
S'Dimension[-5]'
p1891
sg43
(dp1892
S'outport'
p1893
I00
sS'quietval'
p1894
Nsg47
(dp1895
g1850
I1
sg1851
I1
sg1111
I00
ssS'collapsed'
p1896
I00
sS'inport'
p1897
I00
sS'visible'
p1898
I00
sS'id'
p1899
I139909184171360
ssa(dp1900
g39
S"<class '/opt/gpi/node/core/math/GPI/FFTW_GPI.FFTW_GROUP'>"
p1901
sg41
S'Dimension[-6]'
p1902
sg43
(dp1903
S'outport'
p1904
I00
sS'quietval'
p1905
Nsg47
(dp1906
g1850
I1
sg1851
I1
sg1111
I00
ssS'collapsed'
p1907
I00
sS'inport'
p1908
I00
sS'visible'
p1909
I00
sS'id'
p1910
I139909184177576
ssa(dp1911
g39
S"<class 'gpi.widgets.PushButton'>"
p1912
sg41
S'inverse'
p1913
sg43
(dp1914
S'outport'
p1915
I00
sS'quietval'
p1916
Nsg47
I01
sS'collapsed'
p1917
I00
sS'inport'
p1918
I00
sS'visible'
p1919
I01
sS'toggle'
p1920
I01
sS'button_title'
p1921
g74
sS'id'
p1922
I139909184179552
ssa(dp1923
g39
S"<class 'gpi.widgets.PushButton'>"
p1924
sg41
g1111
sg43
(dp1925
S'outport'
p1926
I00
sS'quietval'
p1927
Nsg47
I01
sS'collapsed'
p1928
I00
sS'inport'
p1929
I00
sS'visible'
p1930
I01
sS'toggle'
p1931
I01
sS'button_title'
p1932
g74
sS'id'
p1933
I139909184180456
ssasg211
g779
ssg213
S'0.303410609563'
p1934
sg41
S'FFTW'
p1935
sg216
(lp1936
F-91.66528579858631
aF292.94895769656284
asg218
(lp1937
(dp1938
g221
g222
sg223
I0
sg224
(lp1939
(dp1940
g227
(dp1941
g229
g222
sg230
I139909184181216
sg231
I0
sg232
I139909184136008
ssg233
(dp1942
g229
g235
sg230
I139909184501768
sg231
I0
sg232
I139909184479616
ssasg236
Nsg237
I65540
sg238
I100
sg239
I139909184181216
sa(dp1943
g221
g235
sg223
I0
sg224
(lp1944
(dp1945
g227
(dp1946
g229
g222
sg230
I139909181976656
sg231
I0
sg232
I139909181927208
ssg233
(dp1947
g229
g235
sg230
I139909184181368
sg231
I0
sg232
I139909184136008
ssasg236
Nsg237
I65541
sg238
Nsg239
I139909184181368
sasg242
S'0.049694392903'
p1948
sg244
S'core.math.FFTW'
p1949
sg239
I139909184136008
sg246
S'0.267241001129'
p1950
sa(dp1951
g34
(dp1952
g36
(lp1953
(dp1954
g39
S"<class 'gpi.widgets.TextBox'>"
p1955
sg41
S'I/O Info:'
p1956
sg43
(dp1957
S'openExternalLinks'
p1958
I00
sS'outport'
p1959
I00
sS'quietval'
p1960
Nsg47
S'input: (1, 230, 180)\noutput: (230, 180)'
p1961
sS'collapsed'
p1962
I00
sS'inport'
p1963
I00
sS'visible'
p1964
I01
sS'wordwrap'
p1965
I00
sS'id'
p1966
I139909164688200
ssa(dp1967
g39
S"<class '/opt/gpi/node/core/shapers/GPI/Reduce_GPI.ReduceSliders'>"
p1968
sg41
S'Dimension[-1]'
p1969
sg43
(dp1970
S'outport'
p1971
I00
sS'quietval'
p1972
Nsg47
(dp1973
g629
I180
sg119
I180
sg630
I3
sg631
I91
sg118
I1
ssS'min'
p1974
I1
sS'max'
p1975
I180
sS'collapsed'
p1976
I00
sS'inport'
p1977
I00
sS'visible'
p1978
I01
sS'id'
p1979
I139909164688656
ssa(dp1980
g39
S"<class '/opt/gpi/node/core/shapers/GPI/Reduce_GPI.ReduceSliders'>"
p1981
sg41
S'Dimension[-2]'
p1982
sg43
(dp1983
S'outport'
p1984
I00
sS'quietval'
p1985
Nsg47
(dp1986
g629
I230
sg119
I230
sg630
I3
sg631
I116
sg118
I1
ssS'min'
p1987
I1
sS'max'
p1988
I230
sS'collapsed'
p1989
I00
sS'inport'
p1990
I00
sS'visible'
p1991
I01
sS'id'
p1992
I139909164693664
ssa(dp1993
g39
S"<class '/opt/gpi/node/core/shapers/GPI/Reduce_GPI.ReduceSliders'>"
p1994
sg41
S'Dimension[-3]'
p1995
sg43
(dp1996
S'outport'
p1997
I00
sS'quietval'
p1998
Nsg47
(dp1999
g629
I1
sg119
I1
sg630
I2
sg631
I1
sg118
I1
ssS'min'
p2000
I1
sS'max'
p2001
I1
sS'collapsed'
p2002
I00
sS'inport'
p2003
I00
sS'visible'
p2004
I01
sS'id'
p2005
I139909164698672
ssa(dp2006
g39
S"<class '/opt/gpi/node/core/shapers/GPI/Reduce_GPI.ReduceSliders'>"
p2007
sg41
S'Dimension[-4]'
p2008
sg43
(dp2009
S'outport'
p2010
I00
sS'quietval'
p2011
Nsg47
(dp2012
g629
I1
sg119
I1
sg630
I3
sg631
I1
sg118
I1
ssS'min'
p2013
I1
sS'max'
p2014
I100
sS'collapsed'
p2015
I00
sS'inport'
p2016
I00
sS'visible'
p2017
I00
sS'id'
p2018
I139909164703824
ssa(dp2019
g39
S"<class '/opt/gpi/node/core/shapers/GPI/Reduce_GPI.ReduceSliders'>"
p2020
sg41
S'Dimension[-5]'
p2021
sg43
(dp2022
S'outport'
p2023
I00
sS'quietval'
p2024
Nsg47
(dp2025
g629
I1
sg119
I1
sg630
I3
sg631
I1
sg118
I1
ssS'min'
p2026
I1
sS'max'
p2027
I100
sS'collapsed'
p2028
I00
sS'inport'
p2029
I00
sS'visible'
p2030
I00
sS'id'
p2031
I139909164708832
ssa(dp2032
g39
S"<class '/opt/gpi/node/core/shapers/GPI/Reduce_GPI.ReduceSliders'>"
p2033
sg41
S'Dimension[-6]'
p2034
sg43
(dp2035
S'outport'
p2036
I00
sS'quietval'
p2037
Nsg47
(dp2038
g629
I1
sg119
I1
sg630
I3
sg631
I1
sg118
I1
ssS'min'
p2039
I1
sS'max'
p2040
I100
sS'collapsed'
p2041
I00
sS'inport'
p2042
I00
sS'visible'
p2043
I00
sS'id'
p2044
I139909164713840
ssa(dp2045
g39
S"<class '/opt/gpi/node/core/shapers/GPI/Reduce_GPI.ReduceSliders'>"
p2046
sg41
S'Dimension[-7]'
p2047
sg43
(dp2048
S'outport'
p2049
I00
sS'quietval'
p2050
Nsg47
(dp2051
g629
I1
sg119
I1
sg630
I3
sg631
I1
sg118
I1
ssS'min'
p2052
I1
sS'max'
p2053
I100
sS'collapsed'
p2054
I00
sS'inport'
p2055
I00
sS'visible'
p2056
I00
sS'id'
p2057
I139909164718848
ssa(dp2058
g39
S"<class '/opt/gpi/node/core/shapers/GPI/Reduce_GPI.ReduceSliders'>"
p2059
sg41
S'Dimension[-8]'
p2060
sg43
(dp2061
S'outport'
p2062
I00
sS'quietval'
p2063
Nsg47
(dp2064
g629
I1
sg119
I1
sg630
I3
sg631
I1
sg118
I1
ssS'min'
p2065
I1
sS'max'
p2066
I100
sS'collapsed'
p2067
I00
sS'inport'
p2068
I00
sS'visible'
p2069
I00
sS'id'
p2070
I139909164723856
ssa(dp2071
g39
S"<class '/opt/gpi/node/core/shapers/GPI/Reduce_GPI.ReduceSliders'>"
p2072
sg41
S'Dimension[-9]'
p2073
sg43
(dp2074
S'outport'
p2075
I00
sS'quietval'
p2076
Nsg47
(dp2077
g629
I1
sg119
I1
sg630
I3
sg631
I1
sg118
I1
ssS'min'
p2078
I1
sS'max'
p2079
I100
sS'collapsed'
p2080
I00
sS'inport'
p2081
I00
sS'visible'
p2082
I00
sS'id'
p2083
I139909164733104
ssa(dp2084
g39
S"<class '/opt/gpi/node/core/shapers/GPI/Reduce_GPI.ReduceSliders'>"
p2085
sg41
S'Dimension[-10]'
p2086
sg43
(dp2087
S'outport'
p2088
I00
sS'quietval'
p2089
Nsg47
(dp2090
g629
I1
sg119
I1
sg630
I3
sg631
I1
sg118
I1
ssS'min'
p2091
I1
sS'max'
p2092
I100
sS'collapsed'
p2093
I00
sS'inport'
p2094
I00
sS'visible'
p2095
I00
sS'id'
p2096
I139909164738112
ssa(dp2097
g39
S"<class 'gpi.widgets.PushButton'>"
p2098
sg41
g757
sg43
(dp2099
S'outport'
p2100
I00
sS'quietval'
p2101
Nsg47
I00
sS'collapsed'
p2102
I00
sS'inport'
p2103
I00
sS'visible'
p2104
I01
sS'toggle'
p2105
I01
sS'button_title'
p2106
g74
sS'id'
p2107
I139909164743120
ssa(dp2108
g39
S"<class 'gpi.widgets.PushButton'>"
p2109
sg41
g769
sg43
(dp2110
S'outport'
p2111
I00
sS'quietval'
p2112
Nsg47
I01
sS'collapsed'
p2113
I00
sS'inport'
p2114
I00
sS'visible'
p2115
I01
sS'toggle'
p2116
I01
sS'button_title'
p2117
g74
sS'id'
p2118
I139909164743880
ssasg211
g779
ssg213
S'0.202647566795'
p2119
sg41
g781
sg216
(lp2120
F78.98286104290807
aF-63.963053909507636
asg218
(lp2121
(dp2122
g221
g222
sg223
I0
sg224
(lp2123
(dp2124
g227
(dp2125
g229
g222
sg230
I139909164748880
sg231
I0
sg232
I139909164672880
ssg233
(dp2126
g229
g1131
sg230
I139909184457016
sg231
I0
sg232
I139909184419544
ssasg236
Nsg237
I65540
sg238
I100
sg239
I139909164748880
sa(dp2127
g221
g235
sg223
I0
sg224
(lp2128
(dp2129
g227
(dp2130
g229
g222
sg230
I139909182676320
sg231
I0
sg232
I139909182644456
ssg233
(dp2131
g229
g235
sg230
I139909164749032
sg231
I0
sg232
I139909164672880
ssasg236
Nsg237
I65541
sg238
Nsg239
I139909164749032
sa(dp2132
g221
g796
sg223
I1
sg224
(lp2133
sg236
Nsg237
I65541
sg238
Nsg239
I139909164749184
sasg242
S'0.0162774324417'
p2134
sg244
g799
sg239
I139909164672880
sg246
S'0.186370134354'
p2135
sa(dp2136
g34
(dp2137
g36
(lp2138
(dp2139
g39
S"<class 'gpi.widgets.ExclusivePushButtons'>"
p2140
sg41
S'Complex Display'
p2141
sg43
(dp2142
S'outport'
p2143
I00
sS'quietval'
p2144
Nsg47
I2
sS'collapsed'
p2145
I00
sS'inport'
p2146
I00
sS'visible'
p2147
I00
sS'id'
p2148
I139909183421792
ssa(dp2149
g39
S"<class 'gpi.widgets.ExclusivePushButtons'>"
p2150
sg41
S'Color Map'
p2151
sg43
(dp2152
S'outport'
p2153
I00
sS'quietval'
p2154
Nsg47
I0
sS'collapsed'
p2155
I01
sS'inport'
p2156
I00
sS'visible'
p2157
I01
sS'id'
p2158
I139909182575128
ssa(dp2159
g39
S"<class 'gpi.widgets.SpinBox'>"
p2160
sg41
S'Edge Pixels'
p2161
sg43
(dp2162
S'outport'
p2163
I00
sS'quietval'
p2164
Nsg47
I0
sS'min'
p2165
I0
sS'max'
p2166
I2147483647
sS'collapsed'
p2167
I00
sS'wrapping'
p2168
I00
sS'immediate'
p2169
I00
sS'label'
p2170
g74
sS'singlestep'
p2171
I1
sS'visible'
p2172
I00
sS'inport'
p2173
I00
sS'id'
p2174
I139909182576344
ssa(dp2175
g39
S"<class 'gpi.widgets.SpinBox'>"
p2176
sg41
S'Black Pixels'
p2177
sg43
(dp2178
S'outport'
p2179
I00
sS'quietval'
p2180
Nsg47
I0
sS'min'
p2181
I0
sS'max'
p2182
I2147483647
sS'collapsed'
p2183
I00
sS'wrapping'
p2184
I00
sS'immediate'
p2185
I00
sS'label'
p2186
g74
sS'singlestep'
p2187
I1
sS'visible'
p2188
I00
sS'inport'
p2189
I00
sS'id'
p2190
I139909182577256
ssa(dp2191
g39
S"<class 'gpi.widgets.DisplayBox'>"
p2192
sg41
S'Viewport:'
p2193
sg43
(dp2194
S'outport'
p2195
I00
sS'scale'
p2196
F1.0
sS'quietval'
p2197
Nsg47
NsS'collapsed'
p2198
I00
sS'interp'
p2199
I00
sS'inport'
p2200
I00
sS'visible'
p2201
I01
sS'noscroll'
p2202
I01
sS'points'
p2203
NsS'line'
p2204
NsS'id'
p2205
I139909182578168
ssa(dp2206
g39
S"<class '/opt/gpi/node/core/display/GPI/ImageDisplay_GPI.WindowLevel'>"
p2207
sg41
S'L W F C:'
p2208
sg43
(dp2209
S'outport'
p2210
I00
sS'quietval'
p2211
Nsg47
(dp2212
g117
I1
sg118
I0
sg119
I0
sg120
I0
ssS'min'
p2213
I0
sS'max'
p2214
I100
sS'collapsed'
p2215
I00
sS'inport'
p2216
I00
sS'visible'
p2217
I01
sS'id'
p2218
I139909182580744
ssa(dp2219
g39
S"<class 'gpi.widgets.ExclusivePushButtons'>"
p2220
sg41
S'Scalar Display'
p2221
sg43
(dp2222
S'outport'
p2223
I00
sS'quietval'
p2224
Nsg47
I0
sS'collapsed'
p2225
I00
sS'inport'
p2226
I00
sS'visible'
p2227
I01
sS'id'
p2228
I139909182585600
ssa(dp2229
g39
S"<class 'gpi.widgets.DoubleSpinBox'>"
p2230
sg41
g139
sg43
(dp2231
S'outport'
p2232
I00
sS'quietval'
p2233
Nsg47
F1.0
sS'min'
p2234
F0.1
sS'max'
p2235
F10.0
sS'collapsed'
p2236
I00
sS'wrapping'
p2237
I00
sS'immediate'
p2238
I00
sS'label'
p2239
g74
sS'singlestep'
p2240
F0.05
sS'visible'
p2241
I01
sS'inport'
p2242
I00
sS'decimals'
p2243
I3
sS'id'
p2244
I139909182586360
ssa(dp2245
g39
S"<class 'gpi.widgets.ExclusivePushButtons'>"
p2246
sg41
S'Zero Ref'
p2247
sg43
(dp2248
S'outport'
p2249
I00
sS'quietval'
p2250
Nsg47
I0
sS'collapsed'
p2251
I00
sS'inport'
p2252
I00
sS'visible'
p2253
I01
sS'id'
p2254
I139909182595608
ssa(dp2255
g39
S"<class 'gpi.widgets.PushButton'>"
p2256
sg41
S'Fix Range'
p2257
sg43
(dp2258
S'outport'
p2259
I00
sS'quietval'
p2260
Nsg47
I00
sS'collapsed'
p2261
I00
sS'inport'
p2262
I00
sS'visible'
p2263
I01
sS'toggle'
p2264
I01
sS'button_title'
p2265
VAuto-Range On
p2266
sS'id'
p2267
I139909182596520
ssa(dp2268
g39
S"<class 'gpi.widgets.DoubleSpinBox'>"
p2269
sg41
S'Range Min'
p2270
sg43
(dp2271
S'outport'
p2272
I00
sS'quietval'
p2273
Nsg47
F0.0
sS'min'
p2274
F-1.7976931348623157e+308
sS'max'
p2275
F1.7976931348623157e+308
sS'collapsed'
p2276
I00
sS'wrapping'
p2277
I00
sS'immediate'
p2278
I00
sS'label'
p2279
g74
sS'singlestep'
p2280
F1.0
sS'visible'
p2281
I01
sS'inport'
p2282
I00
sS'decimals'
p2283
I2
sS'id'
p2284
I139909182597280
ssa(dp2285
g39
S"<class 'gpi.widgets.DoubleSpinBox'>"
p2286
sg41
S'Range Max'
p2287
sg43
(dp2288
S'outport'
p2289
I00
sS'quietval'
p2290
Nsg47
F1270.6
sS'min'
p2291
F-1.7976931348623157e+308
sS'max'
p2292
F1.7976931348623157e+308
sS'collapsed'
p2293
I00
sS'wrapping'
p2294
I00
sS'immediate'
p2295
I00
sS'label'
p2296
g74
sS'singlestep'
p2297
F1.0
sS'visible'
p2298
I01
sS'inport'
p2299
I00
sS'decimals'
p2300
I2
sS'id'
p2301
I139909182598192
ssasg211
S'ksp_rss'
p2302
ssg213
S'0.00193572044373'
p2303
sg41
g215
sg216
(lp2304
F-309.60237833216627
aF-121.22583442172622
asg218
(lp2305
(dp2306
g221
g222
sg223
I0
sg224
(lp2307
(dp2308
g227
(dp2309
g229
g222
sg230
I139909182607440
sg231
I0
sg232
I139909183419208
ssg233
(dp2310
g229
g235
sg230
I139909059092560
sg231
I0
sg232
I139909164623576
ssasg236
Nsg237
I65540
sg238
I100
sg239
I139909182607440
sa(dp2311
g221
g235
sg223
I0
sg224
(lp2312
sg236
Nsg237
I65541
sg238
Nsg239
I139909182607592
sasg242
S'0.00125592571206'
p2313
sg244
g245
sg239
I139909183419208
sg246
S'0.00205111503601'
p2314
sa(dp2315
g34
(dp2316
g36
(lp2317
(dp2318
g39
S"<class '/opt/gpi/node/core/math/GPI/FFTW_GPI.FFTW_GROUP'>"
p2319
sg41
S'Dimension[-1]'
p2320
sg43
(dp2321
S'outport'
p2322
I00
sS'quietval'
p2323
Nsg47
(dp2324
g1850
I8
sg1851
I8
sg1111
I00
ssS'collapsed'
p2325
I00
sS'inport'
p2326
I00
sS'visible'
p2327
I01
sS'id'
p2328
I139909181835424
ssa(dp2329
g39
S"<class '/opt/gpi/node/core/math/GPI/FFTW_GPI.FFTW_GROUP'>"
p2330
sg41
S'Dimension[-2]'
p2331
sg43
(dp2332
S'outport'
p2333
I00
sS'quietval'
p2334
Nsg47
(dp2335
g1850
I180
sg1851
I180
sg1111
I01
ssS'collapsed'
p2336
I00
sS'inport'
p2337
I00
sS'visible'
p2338
I01
sS'id'
p2339
I139909181845736
ssa(dp2340
g39
S"<class '/opt/gpi/node/core/math/GPI/FFTW_GPI.FFTW_GROUP'>"
p2341
sg41
S'Dimension[-3]'
p2342
sg43
(dp2343
S'outport'
p2344
I00
sS'quietval'
p2345
Nsg47
(dp2346
g1850
I230
sg1851
I230
sg1111
I01
ssS'collapsed'
p2347
I00
sS'inport'
p2348
I00
sS'visible'
p2349
I01
sS'id'
p2350
I139909181847712
ssa(dp2351
g39
S"<class '/opt/gpi/node/core/math/GPI/FFTW_GPI.FFTW_GROUP'>"
p2352
sg41
S'Dimension[-4]'
p2353
sg43
(dp2354
S'outport'
p2355
I00
sS'quietval'
p2356
Nsg47
(dp2357
g1850
I1
sg1851
I1
sg1111
I00
ssS'collapsed'
p2358
I00
sS'inport'
p2359
I00
sS'visible'
p2360
I01
sS'id'
p2361
I139909181853928
ssa(dp2362
g39
S"<class '/opt/gpi/node/core/math/GPI/FFTW_GPI.FFTW_GROUP'>"
p2363
sg41
S'Dimension[-5]'
p2364
sg43
(dp2365
S'outport'
p2366
I00
sS'quietval'
p2367
Nsg47
(dp2368
g1850
I1
sg1851
I1
sg1111
I00
ssS'collapsed'
p2369
I00
sS'inport'
p2370
I00
sS'visible'
p2371
I00
sS'id'
p2372
I139909181855904
ssa(dp2373
g39
S"<class '/opt/gpi/node/core/math/GPI/FFTW_GPI.FFTW_GROUP'>"
p2374
sg41
S'Dimension[-6]'
p2375
sg43
(dp2376
S'outport'
p2377
I00
sS'quietval'
p2378
Nsg47
(dp2379
g1850
I1
sg1851
I1
sg1111
I00
ssS'collapsed'
p2380
I00
sS'inport'
p2381
I00
sS'visible'
p2382
I00
sS'id'
p2383
I139909181866216
ssa(dp2384
g39
S"<class 'gpi.widgets.PushButton'>"
p2385
sg41
g1913
sg43
(dp2386
S'outport'
p2387
I00
sS'quietval'
p2388
Nsg47
I01
sS'collapsed'
p2389
I00
sS'inport'
p2390
I00
sS'visible'
p2391
I01
sS'toggle'
p2392
I01
sS'button_title'
p2393
g74
sS'id'
p2394
I139909181868192
ssa(dp2395
g39
S"<class 'gpi.widgets.PushButton'>"
p2396
sg41
g1111
sg43
(dp2397
S'outport'
p2398
I00
sS'quietval'
p2399
Nsg47
I01
sS'collapsed'
p2400
I00
sS'inport'
p2401
I00
sS'visible'
p2402
I01
sS'toggle'
p2403
I01
sS'button_title'
p2404
g74
sS'id'
p2405
I139909181868952
ssasg211
g779
ssg213
S'0.399692058563'
p2406
sg41
g1935
sg216
(lp2407
F247.24175991631586
aF-310.93573338806067
asg218
(lp2408
(dp2409
g221
g222
sg223
I0
sg224
(lp2410
(dp2411
g227
(dp2412
g229
g222
sg230
I139909181869712
sg231
I0
sg232
I139909181791736
ssg233
(dp2413
g229
g235
sg230
I139909181925232
sg231
I0
sg232
I139909181790976
ssasg236
Nsg237
I65540
sg238
I100
sg239
I139909181869712
sa(dp2414
g221
g235
sg223
I0
sg224
(lp2415
(dp2416
g227
(dp2417
g229
g222
sg230
I139909181740456
sg231
I0
sg232
I139909182088160
ssg233
(dp2418
g229
g235
sg230
I139909181869864
sg231
I0
sg232
I139909181791736
ssasg236
Nsg237
I65541
sg238
Nsg239
I139909181869864
sasg242
S'0.0907120704651'
p2419
sg244
g1949
sg239
I139909181791736
sg246
S'0.490404129028'
p2420
sa(dp2421
g34
(dp2422
g36
(lp2423
(dp2424
g39
S"<class 'gpi.widgets.TextBox'>"
p2425
sg41
S'I/O Info:'
p2426
sg43
(dp2427
S'openExternalLinks'
p2428
I00
sS'outport'
p2429
I00
sS'quietval'
p2430
Nsg47
S'input: (1, 230, 180)\noutput: (230, 180)'
p2431
sS'collapsed'
p2432
I00
sS'inport'
p2433
I00
sS'visible'
p2434
I01
sS'wordwrap'
p2435
I00
sS'id'
p2436
I139909172906600
ssa(dp2437
g39
S"<class '/opt/gpi/node/core/shapers/GPI/Reduce_GPI.ReduceSliders'>"
p2438
sg41
S'Dimension[-1]'
p2439
sg43
(dp2440
S'outport'
p2441
I00
sS'quietval'
p2442
Nsg47
(dp2443
g629
I180
sg119
I180
sg630
I3
sg631
I91
sg118
I1
ssS'min'
p2444
I1
sS'max'
p2445
I180
sS'collapsed'
p2446
I00
sS'inport'
p2447
I00
sS'visible'
p2448
I01
sS'id'
p2449
I139909172907056
ssa(dp2450
g39
S"<class '/opt/gpi/node/core/shapers/GPI/Reduce_GPI.ReduceSliders'>"
p2451
sg41
S'Dimension[-2]'
p2452
sg43
(dp2453
S'outport'
p2454
I00
sS'quietval'
p2455
Nsg47
(dp2456
g629
I230
sg119
I230
sg630
I3
sg631
I116
sg118
I1
ssS'min'
p2457
I1
sS'max'
p2458
I230
sS'collapsed'
p2459
I00
sS'inport'
p2460
I00
sS'visible'
p2461
I01
sS'id'
p2462
I139909172818000
ssa(dp2463
g39
S"<class '/opt/gpi/node/core/shapers/GPI/Reduce_GPI.ReduceSliders'>"
p2464
sg41
S'Dimension[-3]'
p2465
sg43
(dp2466
S'outport'
p2467
I00
sS'quietval'
p2468
Nsg47
(dp2469
g629
I1
sg119
I1
sg630
I2
sg631
I1
sg118
I1
ssS'min'
p2470
I1
sS'max'
p2471
I1
sS'collapsed'
p2472
I00
sS'inport'
p2473
I00
sS'visible'
p2474
I01
sS'id'
p2475
I139909172913120
ssa(dp2476
g39
S"<class '/opt/gpi/node/core/shapers/GPI/Reduce_GPI.ReduceSliders'>"
p2477
sg41
S'Dimension[-4]'
p2478
sg43
(dp2479
S'outport'
p2480
I00
sS'quietval'
p2481
Nsg47
(dp2482
g629
I1
sg119
I1
sg630
I3
sg631
I1
sg118
I1
ssS'min'
p2483
I1
sS'max'
p2484
I100
sS'collapsed'
p2485
I00
sS'inport'
p2486
I00
sS'visible'
p2487
I00
sS'id'
p2488
I139909184698224
ssa(dp2489
g39
S"<class '/opt/gpi/node/core/shapers/GPI/Reduce_GPI.ReduceSliders'>"
p2490
sg41
S'Dimension[-5]'
p2491
sg43
(dp2492
S'outport'
p2493
I00
sS'quietval'
p2494
Nsg47
(dp2495
g629
I1
sg119
I1
sg630
I3
sg631
I1
sg118
I1
ssS'min'
p2496
I1
sS'max'
p2497
I100
sS'collapsed'
p2498
I00
sS'inport'
p2499
I00
sS'visible'
p2500
I00
sS'id'
p2501
I139909184740096
ssa(dp2502
g39
S"<class '/opt/gpi/node/core/shapers/GPI/Reduce_GPI.ReduceSliders'>"
p2503
sg41
S'Dimension[-6]'
p2504
sg43
(dp2505
S'outport'
p2506
I00
sS'quietval'
p2507
Nsg47
(dp2508
g629
I1
sg119
I1
sg630
I3
sg631
I1
sg118
I1
ssS'min'
p2509
I1
sS'max'
p2510
I100
sS'collapsed'
p2511
I00
sS'inport'
p2512
I00
sS'visible'
p2513
I00
sS'id'
p2514
I139909184745104
ssa(dp2515
g39
S"<class '/opt/gpi/node/core/shapers/GPI/Reduce_GPI.ReduceSliders'>"
p2516
sg41
S'Dimension[-7]'
p2517
sg43
(dp2518
S'outport'
p2519
I00
sS'quietval'
p2520
Nsg47
(dp2521
g629
I1
sg119
I1
sg630
I3
sg631
I1
sg118
I1
ssS'min'
p2522
I1
sS'max'
p2523
I100
sS'collapsed'
p2524
I00
sS'inport'
p2525
I00
sS'visible'
p2526
I00
sS'id'
p2527
I139909184664240
ssa(dp2528
g39
S"<class '/opt/gpi/node/core/shapers/GPI/Reduce_GPI.ReduceSliders'>"
p2529
sg41
S'Dimension[-8]'
p2530
sg43
(dp2531
S'outport'
p2532
I00
sS'quietval'
p2533
Nsg47
(dp2534
g629
I1
sg119
I1
sg630
I3
sg631
I1
sg118
I1
ssS'min'
p2535
I1
sS'max'
p2536
I100
sS'collapsed'
p2537
I00
sS'inport'
p2538
I00
sS'visible'
p2539
I00
sS'id'
p2540
I139909184792128
ssa(dp2541
g39
S"<class '/opt/gpi/node/core/shapers/GPI/Reduce_GPI.ReduceSliders'>"
p2542
sg41
S'Dimension[-9]'
p2543
sg43
(dp2544
S'outport'
p2545
I00
sS'quietval'
p2546
Nsg47
(dp2547
g629
I1
sg119
I1
sg630
I3
sg631
I1
sg118
I1
ssS'min'
p2548
I1
sS'max'
p2549
I100
sS'collapsed'
p2550
I00
sS'inport'
p2551
I00
sS'visible'
p2552
I00
sS'id'
p2553
I139909184756176
ssa(dp2554
g39
S"<class '/opt/gpi/node/core/shapers/GPI/Reduce_GPI.ReduceSliders'>"
p2555
sg41
S'Dimension[-10]'
p2556
sg43
(dp2557
S'outport'
p2558
I00
sS'quietval'
p2559
Nsg47
(dp2560
g629
I1
sg119
I1
sg630
I3
sg631
I1
sg118
I1
ssS'min'
p2561
I1
sS'max'
p2562
I100
sS'collapsed'
p2563
I00
sS'inport'
p2564
I00
sS'visible'
p2565
I00
sS'id'
p2566
I139909181627744
ssa(dp2567
g39
S"<class 'gpi.widgets.PushButton'>"
p2568
sg41
g757
sg43
(dp2569
S'outport'
p2570
I00
sS'quietval'
p2571
Nsg47
I00
sS'collapsed'
p2572
I00
sS'inport'
p2573
I00
sS'visible'
p2574
I01
sS'toggle'
p2575
I01
sS'button_title'
p2576
g74
sS'id'
p2577
I139909181555072
ssa(dp2578
g39
S"<class 'gpi.widgets.PushButton'>"
p2579
sg41
g769
sg43
(dp2580
S'outport'
p2581
I00
sS'quietval'
p2582
Nsg47
I01
sS'collapsed'
p2583
I00
sS'inport'
p2584
I00
sS'visible'
p2585
I01
sS'toggle'
p2586
I01
sS'button_title'
p2587
g74
sS'id'
p2588
I139909181555832
ssasg211
g779
ssg213
S'0.190434098244'
p2589
sg41
g781
sg216
(lp2590
F-417.1743389672403
aF-79.3000514830933
asg218
(lp2591
(dp2592
g221
g222
sg223
I0
sg224
(lp2593
(dp2594
g227
(dp2595
g229
g222
sg230
I139909181556592
sg231
I0
sg232
I139909172904016
ssg233
(dp2596
g229
S'Collapse Single Dim'
p2597
sg230
I139909182629744
sg231
I0
sg232
I139909183354432
ssasg236
Nsg237
I65540
sg238
I100
sg239
I139909181556592
sa(dp2598
g221
g235
sg223
I0
sg224
(lp2599
(dp2600
g227
(dp2601
g229
g222
sg230
I139909182506104
sg231
I0
sg232
I139909182433136
ssg233
(dp2602
g229
g235
sg230
I139909181556744
sg231
I0
sg232
I139909172904016
ssasg236
Nsg237
I65541
sg238
Nsg239
I139909181556744
sa(dp2603
g221
g796
sg223
I1
sg224
(lp2604
sg236
Nsg237
I65541
sg238
Nsg239
I139909181556896
sasg242
S'0.0090399980545'
p2605
sg244
g799
sg239
I139909172904016
sg246
S'0.199474096298'
p2606
sa(dp2607
g34
(dp2608
g36
(lp2609
(dp2610
g39
S"<class 'gpi.widgets.TextBox'>"
p2611
sg41
S'I/O Info:'
p2612
sg43
(dp2613
S'openExternalLinks'
p2614
I00
sS'outport'
p2615
I00
sS'quietval'
p2616
Nsg47
S'input: (1, 230, 180, 8)\noutput: (230, 180, 8)'
p2617
sS'collapsed'
p2618
I00
sS'inport'
p2619
I00
sS'visible'
p2620
I01
sS'wordwrap'
p2621
I00
sS'id'
p2622
I139909182187680
ssa(dp2623
g39
S"<class '/opt/gpi/node/core/shapers/GPI/Reduce_GPI.ReduceSliders'>"
p2624
sg41
S'Dimension[-1]'
p2625
sg43
(dp2626
S'outport'
p2627
I00
sS'quietval'
p2628
Nsg47
(dp2629
g629
I8
sg119
I8
sg630
I3
sg631
I5
sg118
I1
ssS'min'
p2630
I1
sS'max'
p2631
I8
sS'collapsed'
p2632
I00
sS'inport'
p2633
I00
sS'visible'
p2634
I01
sS'id'
p2635
I139909182188136
ssa(dp2636
g39
S"<class '/opt/gpi/node/core/shapers/GPI/Reduce_GPI.ReduceSliders'>"
p2637
sg41
S'Dimension[-2]'
p2638
sg43
(dp2639
S'outport'
p2640
I00
sS'quietval'
p2641
Nsg47
(dp2642
g629
I180
sg119
I180
sg630
I3
sg631
I91
sg118
I1
ssS'min'
p2643
I1
sS'max'
p2644
I180
sS'collapsed'
p2645
I00
sS'inport'
p2646
I00
sS'visible'
p2647
I01
sS'id'
p2648
I139909182201336
ssa(dp2649
g39
S"<class '/opt/gpi/node/core/shapers/GPI/Reduce_GPI.ReduceSliders'>"
p2650
sg41
S'Dimension[-3]'
p2651
sg43
(dp2652
S'outport'
p2653
I00
sS'quietval'
p2654
Nsg47
(dp2655
g629
I230
sg119
I230
sg630
I3
sg631
I116
sg118
I1
ssS'min'
p2656
I1
sS'max'
p2657
I230
sS'collapsed'
p2658
I00
sS'inport'
p2659
I00
sS'visible'
p2660
I01
sS'id'
p2661
I139909182210584
ssa(dp2662
g39
S"<class '/opt/gpi/node/core/shapers/GPI/Reduce_GPI.ReduceSliders'>"
p2663
sg41
S'Dimension[-4]'
p2664
sg43
(dp2665
S'outport'
p2666
I00
sS'quietval'
p2667
Nsg47
(dp2668
g629
I1
sg119
I1
sg630
I2
sg631
I1
sg118
I1
ssS'min'
p2669
I1
sS'max'
p2670
I1
sS'collapsed'
p2671
I00
sS'inport'
p2672
I00
sS'visible'
p2673
I01
sS'id'
p2674
I139909182215592
ssa(dp2675
g39
S"<class '/opt/gpi/node/core/shapers/GPI/Reduce_GPI.ReduceSliders'>"
p2676
sg41
S'Dimension[-5]'
p2677
sg43
(dp2678
S'outport'
p2679
I00
sS'quietval'
p2680
Nsg47
(dp2681
g629
I1
sg119
I1
sg630
I3
sg631
I1
sg118
I1
ssS'min'
p2682
I1
sS'max'
p2683
I1
sS'collapsed'
p2684
I00
sS'inport'
p2685
I00
sS'visible'
p2686
I00
sS'id'
p2687
I139909182220600
ssa(dp2688
g39
S"<class '/opt/gpi/node/core/shapers/GPI/Reduce_GPI.ReduceSliders'>"
p2689
sg41
S'Dimension[-6]'
p2690
sg43
(dp2691
S'outport'
p2692
I00
sS'quietval'
p2693
Nsg47
(dp2694
g629
I100
sg119
I100
sg630
I3
sg631
I51
sg118
I1
ssS'min'
p2695
I1
sS'max'
p2696
I100
sS'collapsed'
p2697
I00
sS'inport'
p2698
I00
sS'visible'
p2699
I00
sS'id'
p2700
I139909182229704
ssa(dp2701
g39
S"<class '/opt/gpi/node/core/shapers/GPI/Reduce_GPI.ReduceSliders'>"
p2702
sg41
S'Dimension[-7]'
p2703
sg43
(dp2704
S'outport'
p2705
I00
sS'quietval'
p2706
Nsg47
(dp2707
g629
I100
sg119
I100
sg630
I3
sg631
I51
sg118
I1
ssS'min'
p2708
I1
sS'max'
p2709
I100
sS'collapsed'
p2710
I00
sS'inport'
p2711
I00
sS'visible'
p2712
I00
sS'id'
p2713
I139909182234856
ssa(dp2714
g39
S"<class '/opt/gpi/node/core/shapers/GPI/Reduce_GPI.ReduceSliders'>"
p2715
sg41
S'Dimension[-8]'
p2716
sg43
(dp2717
S'outport'
p2718
I00
sS'quietval'
p2719
Nsg47
(dp2720
g629
I100
sg119
I100
sg630
I3
sg631
I51
sg118
I1
ssS'min'
p2721
I1
sS'max'
p2722
I100
sS'collapsed'
p2723
I00
sS'inport'
p2724
I00
sS'visible'
p2725
I00
sS'id'
p2726
I139909182243960
ssa(dp2727
g39
S"<class '/opt/gpi/node/core/shapers/GPI/Reduce_GPI.ReduceSliders'>"
p2728
sg41
S'Dimension[-9]'
p2729
sg43
(dp2730
S'outport'
p2731
I00
sS'quietval'
p2732
Nsg47
(dp2733
g629
I100
sg119
I100
sg630
I3
sg631
I51
sg118
I1
ssS'min'
p2734
I1
sS'max'
p2735
I100
sS'collapsed'
p2736
I00
sS'inport'
p2737
I00
sS'visible'
p2738
I00
sS'id'
p2739
I139909182248968
ssa(dp2740
g39
S"<class '/opt/gpi/node/core/shapers/GPI/Reduce_GPI.ReduceSliders'>"
p2741
sg41
S'Dimension[-10]'
p2742
sg43
(dp2743
S'outport'
p2744
I00
sS'quietval'
p2745
Nsg47
(dp2746
g629
I100
sg119
I100
sg630
I3
sg631
I51
sg118
I1
ssS'min'
p2747
I1
sS'max'
p2748
I100
sS'collapsed'
p2749
I00
sS'inport'
p2750
I00
sS'visible'
p2751
I00
sS'id'
p2752
I139909182253976
ssa(dp2753
g39
S"<class 'gpi.widgets.PushButton'>"
p2754
sg41
g757
sg43
(dp2755
S'outport'
p2756
I00
sS'quietval'
p2757
Nsg47
I00
sS'collapsed'
p2758
I00
sS'inport'
p2759
I00
sS'visible'
p2760
I01
sS'toggle'
p2761
I01
sS'button_title'
p2762
g74
sS'id'
p2763
I139909181738792
ssa(dp2764
g39
S"<class 'gpi.widgets.PushButton'>"
p2765
sg41
g769
sg43
(dp2766
S'outport'
p2767
I00
sS'quietval'
p2768
Nsg47
I01
sS'collapsed'
p2769
I00
sS'inport'
p2770
I00
sS'visible'
p2771
I01
sS'toggle'
p2772
I01
sS'button_title'
p2773
g74
sS'id'
p2774
I139909181739696
ssasg211
g779
ssg213
S'0.278173446655'
p2775
sg41
g781
sg216
(lp2776
F247.24175991631586
aF-280.93573338806067
asg218
(lp2777
(dp2778
g221
g222
sg223
I0
sg224
(lp2779
(dp2780
g227
(dp2781
g229
g222
sg230
I139909181740456
sg231
I0
sg232
I139909182088160
ssg233
(dp2782
g229
g235
sg230
I139909181869864
sg231
I0
sg232
I139909181791736
ssasg236
Nsg237
I65540
sg238
I100
sg239
I139909181740456
sa(dp2783
g221
g235
sg223
I0
sg224
(lp2784
(dp2785
g227
(dp2786
g229
g222
sg230
I139909029573904
sg231
I0
sg232
I139909038351632
ssg233
(dp2787
g229
g235
sg230
I139909181740608
sg231
I0
sg232
I139909182088160
ssasg236
Nsg237
I65541
sg238
Nsg239
I139909181740608
sa(dp2788
g221
g796
sg223
I1
sg224
(lp2789
sg236
Nsg237
I65541
sg238
Nsg239
I139909181740760
sasg242
S'0.0836305618286'
p2790
sg244
g799
sg239
I139909182088160
sg246
S'0.194542884827'
p2791
sa(dp2792
g34
(dp2793
g36
(lp2794
(dp2795
g39
S"<class 'gpi.widgets.ExclusivePushButtons'>"
p2796
sg41
S'Complex Display'
p2797
sg43
(dp2798
S'outport'
p2799
I00
sS'quietval'
p2800
Nsg47
I4
sS'collapsed'
p2801
I00
sS'inport'
p2802
I00
sS'visible'
p2803
I00
sS'id'
p2804
I139909183719128
ssa(dp2805
g39
S"<class 'gpi.widgets.ExclusivePushButtons'>"
p2806
sg41
S'Color Map'
p2807
sg43
(dp2808
S'outport'
p2809
I00
sS'quietval'
p2810
Nsg47
I0
sS'collapsed'
p2811
I01
sS'inport'
p2812
I00
sS'visible'
p2813
I01
sS'id'
p2814
I139909183720192
ssa(dp2815
g39
S"<class 'gpi.widgets.SpinBox'>"
p2816
sg41
S'Edge Pixels'
p2817
sg43
(dp2818
S'outport'
p2819
I00
sS'quietval'
p2820
Nsg47
I0
sS'min'
p2821
I0
sS'max'
p2822
I2147483647
sS'collapsed'
p2823
I00
sS'wrapping'
p2824
I00
sS'immediate'
p2825
I00
sS'label'
p2826
g74
sS'singlestep'
p2827
I1
sS'visible'
p2828
I00
sS'inport'
p2829
I00
sS'id'
p2830
I139909183615056
ssa(dp2831
g39
S"<class 'gpi.widgets.SpinBox'>"
p2832
sg41
S'Black Pixels'
p2833
sg43
(dp2834
S'outport'
p2835
I00
sS'quietval'
p2836
Nsg47
I0
sS'min'
p2837
I0
sS'max'
p2838
I2147483647
sS'collapsed'
p2839
I00
sS'wrapping'
p2840
I00
sS'immediate'
p2841
I00
sS'label'
p2842
g74
sS'singlestep'
p2843
I1
sS'visible'
p2844
I00
sS'inport'
p2845
I00
sS'id'
p2846
I139909183615968
ssa(dp2847
g39
S"<class 'gpi.widgets.DisplayBox'>"
p2848
sg41
S'Viewport:'
p2849
sg43
(dp2850
S'outport'
p2851
I00
sS'scale'
p2852
F1.0
sS'quietval'
p2853
Nsg47
NsS'collapsed'
p2854
I00
sS'interp'
p2855
I00
sS'inport'
p2856
I00
sS'visible'
p2857
I01
sS'noscroll'
p2858
I01
sS'points'
p2859
NsS'line'
p2860
NsS'id'
p2861
I139909183616880
ssa(dp2862
g39
S"<class '/opt/gpi/node/core/display/GPI/ImageDisplay_GPI.WindowLevel'>"
p2863
sg41
S'L W F C:'
p2864
sg43
(dp2865
S'outport'
p2866
I00
sS'quietval'
p2867
Nsg47
(dp2868
g117
I100
sg118
I0
sg119
I100
sg120
I50
ssS'min'
p2869
I0
sS'max'
p2870
I100
sS'collapsed'
p2871
I00
sS'inport'
p2872
I00
sS'visible'
p2873
I01
sS'id'
p2874
I139909183754624
ssa(dp2875
g39
S"<class 'gpi.widgets.ExclusivePushButtons'>"
p2876
sg41
S'Scalar Display'
p2877
sg43
(dp2878
S'outport'
p2879
I00
sS'quietval'
p2880
Nsg47
I0
sS'collapsed'
p2881
I00
sS'inport'
p2882
I00
sS'visible'
p2883
I01
sS'id'
p2884
I139909183763576
ssa(dp2885
g39
S"<class 'gpi.widgets.DoubleSpinBox'>"
p2886
sg41
g139
sg43
(dp2887
S'outport'
p2888
I00
sS'quietval'
p2889
Nsg47
F1.0
sS'min'
p2890
F0.1
sS'max'
p2891
F10.0
sS'collapsed'
p2892
I00
sS'wrapping'
p2893
I00
sS'immediate'
p2894
I00
sS'label'
p2895
g74
sS'singlestep'
p2896
F0.05
sS'visible'
p2897
I01
sS'inport'
p2898
I00
sS'decimals'
p2899
I3
sS'id'
p2900
I139909183764336
ssa(dp2901
g39
S"<class 'gpi.widgets.ExclusivePushButtons'>"
p2902
sg41
S'Zero Ref'
p2903
sg43
(dp2904
S'outport'
p2905
I00
sS'quietval'
p2906
Nsg47
I0
sS'collapsed'
p2907
I00
sS'inport'
p2908
I00
sS'visible'
p2909
I01
sS'id'
p2910
I139909183765248
ssa(dp2911
g39
S"<class 'gpi.widgets.PushButton'>"
p2912
sg41
S'Fix Range'
p2913
sg43
(dp2914
S'outport'
p2915
I00
sS'quietval'
p2916
Nsg47
I00
sS'collapsed'
p2917
I00
sS'inport'
p2918
I00
sS'visible'
p2919
I01
sS'toggle'
p2920
I01
sS'button_title'
p2921
VAuto-Range On
p2922
sS'id'
p2923
I139909183766160
ssa(dp2924
g39
S"<class 'gpi.widgets.DoubleSpinBox'>"
p2925
sg41
S'Range Min'
p2926
sg43
(dp2927
S'outport'
p2928
I00
sS'quietval'
p2929
Nsg47
F0.0
sS'min'
p2930
F-1.7976931348623157e+308
sS'max'
p2931
F1.7976931348623157e+308
sS'collapsed'
p2932
I00
sS'wrapping'
p2933
I00
sS'immediate'
p2934
I00
sS'label'
p2935
g74
sS'singlestep'
p2936
F1.0
sS'visible'
p2937
I01
sS'inport'
p2938
I00
sS'decimals'
p2939
I2
sS'id'
p2940
I139909183734296
ssa(dp2941
g39
S"<class 'gpi.widgets.DoubleSpinBox'>"
p2942
sg41
S'Range Max'
p2943
sg43
(dp2944
S'outport'
p2945
I00
sS'quietval'
p2946
Nsg47
F0.03
sS'min'
p2947
F-1.7976931348623157e+308
sS'max'
p2948
F1.7976931348623157e+308
sS'collapsed'
p2949
I00
sS'wrapping'
p2950
I00
sS'immediate'
p2951
I00
sS'label'
p2952
g74
sS'singlestep'
p2953
F1.0
sS'visible'
p2954
I01
sS'inport'
p2955
I00
sS'decimals'
p2956
I2
sS'id'
p2957
I139909183735208
ssasg211
S'errsos_espirit'
p2958
ssg213
S'0.00207674503326'
p2959
sg41
g215
sg216
(lp2960
F-91.66528579858631
aF388.94895769656284
asg218
(lp2961
(dp2962
g221
g222
sg223
I0
sg224
(lp2963
(dp2964
g227
(dp2965
g229
g222
sg230
I139909183736120
sg231
I0
sg232
I139909183806512
ssg233
(dp2966
g229
g235
sg230
I139909059278552
sg231
I0
sg232
I139909059186016
ssasg236
Nsg237
I65540
sg238
I100
sg239
I139909183736120
sa(dp2967
g221
g235
sg223
I0
sg224
(lp2968
sg236
Nsg237
I65541
sg238
Nsg239
I139909183736272
sasg242
S'0.00126710007786'
p2969
sg244
g245
sg239
I139909183806512
sg246
S'0.00233888626099'
p2970
sa(dp2971
g34
(dp2972
g36
(lp2973
(dp2974
g39
S"<class '/opt/gpi/node/core/math/GPI/FFTW_GPI.FFTW_GROUP'>"
p2975
sg41
S'Dimension[-1]'
p2976
sg43
(dp2977
S'outport'
p2978
I00
sS'quietval'
p2979
Nsg47
(dp2980
g1850
I8
sg1851
I8
sg1111
I00
ssS'collapsed'
p2981
I00
sS'inport'
p2982
I00
sS'visible'
p2983
I01
sS'id'
p2984
I139909182107728
ssa(dp2985
g39
S"<class '/opt/gpi/node/core/math/GPI/FFTW_GPI.FFTW_GROUP'>"
p2986
sg41
S'Dimension[-2]'
p2987
sg43
(dp2988
S'outport'
p2989
I00
sS'quietval'
p2990
Nsg47
(dp2991
g1850
I180
sg1851
I180
sg1111
I01
ssS'collapsed'
p2992
I00
sS'inport'
p2993
I00
sS'visible'
p2994
I01
sS'id'
p2995
I139909182109704
ssa(dp2996
g39
S"<class '/opt/gpi/node/core/math/GPI/FFTW_GPI.FFTW_GROUP'>"
p2997
sg41
S'Dimension[-3]'
p2998
sg43
(dp2999
S'outport'
p3000
I00
sS'quietval'
p3001
Nsg47
(dp3002
g1850
I230
sg1851
I230
sg1111
I01
ssS'collapsed'
p3003
I00
sS'inport'
p3004
I00
sS'visible'
p3005
I01
sS'id'
p3006
I139909182120016
ssa(dp3007
g39
S"<class '/opt/gpi/node/core/math/GPI/FFTW_GPI.FFTW_GROUP'>"
p3008
sg41
S'Dimension[-4]'
p3009
sg43
(dp3010
S'outport'
p3011
I00
sS'quietval'
p3012
Nsg47
(dp3013
g1850
I1
sg1851
I1
sg1111
I00
ssS'collapsed'
p3014
I00
sS'inport'
p3015
I00
sS'visible'
p3016
I01
sS'id'
p3017
I139909182121992
ssa(dp3018
g39
S"<class '/opt/gpi/node/core/math/GPI/FFTW_GPI.FFTW_GROUP'>"
p3019
sg41
S'Dimension[-5]'
p3020
sg43
(dp3021
S'outport'
p3022
I00
sS'quietval'
p3023
Nsg47
(dp3024
g1850
I1
sg1851
I1
sg1111
I00
ssS'collapsed'
p3025
I00
sS'inport'
p3026
I00
sS'visible'
p3027
I00
sS'id'
p3028
I139909182128208
ssa(dp3029
g39
S"<class '/opt/gpi/node/core/math/GPI/FFTW_GPI.FFTW_GROUP'>"
p3030
sg41
S'Dimension[-6]'
p3031
sg43
(dp3032
S'outport'
p3033
I00
sS'quietval'
p3034
Nsg47
(dp3035
g1850
I1
sg1851
I1
sg1111
I00
ssS'collapsed'
p3036
I00
sS'inport'
p3037
I00
sS'visible'
p3038
I00
sS'id'
p3039
I139909182130184
ssa(dp3040
g39
S"<class 'gpi.widgets.PushButton'>"
p3041
sg41
g1913
sg43
(dp3042
S'outport'
p3043
I00
sS'quietval'
p3044
Nsg47
I01
sS'collapsed'
p3045
I00
sS'inport'
p3046
I00
sS'visible'
p3047
I01
sS'toggle'
p3048
I01
sS'button_title'
p3049
g74
sS'id'
p3050
I139909182136400
ssa(dp3051
g39
S"<class 'gpi.widgets.PushButton'>"
p3052
sg41
g1111
sg43
(dp3053
S'outport'
p3054
I00
sS'quietval'
p3055
Nsg47
I01
sS'collapsed'
p3056
I00
sS'inport'
p3057
I00
sS'visible'
p3058
I01
sS'toggle'
p3059
I01
sS'button_title'
p3060
g74
sS'id'
p3061
I139909182137160
ssasg211
g779
ssg213
S'0.224498510361'
p3062
sg41
g1935
sg216
(lp3063
F-417.1743389672403
aF-139.3000514830933
asg218
(lp3064
(dp3065
g221
g222
sg223
I0
sg224
(lp3066
(dp3067
g227
(dp3068
g229
g222
sg230
I139909182137920
sg231
I0
sg232
I139909182088616
ssg233
(dp3069
g229
g235
sg230
I139909183479288
sg231
I0
sg232
I139909183462448
ssasg236
Nsg237
I65540
sg238
I100
sg239
I139909182137920
sa(dp3070
g221
g235
sg223
I0
sg224
(lp3071
(dp3072
g227
(dp3073
g229
g222
sg230
I139909182629592
sg231
I0
sg232
I139909183354432
ssg233
(dp3074
g229
g235
sg230
I139909182138072
sg231
I0
sg232
I139909182088616
ssasg236
Nsg237
I65541
sg238
Nsg239
I139909182138072
sasg242
S'0.00768041610718'
p3075
sg244
g1949
sg239
I139909182088616
sg246
S'0.216818094254'
p3076
sa(dp3077
g34
(dp3078
g36
(lp3079
(dp3080
g39
S"<class 'gpi.widgets.TextBox'>"
p3081
sg41
g1515
sg43
(dp3082
S'openExternalLinks'
p3083
I00
sS'outport'
p3084
I00
sS'quietval'
p3085
Nsg47
S'Ready'
p3086
sS'collapsed'
p3087
I00
sS'inport'
p3088
I00
sS'visible'
p3089
I01
sS'wordwrap'
p3090
I00
sS'id'
p3091
I139909183364144
ssa(dp3092
g39
S"<class 'gpi.widgets.TextBox'>"
p3093
sg41
g1528
sg43
(dp3094
S'openExternalLinks'
p3095
I00
sS'outport'
p3096
I00
sS'quietval'
p3097
Nsg47
S'input: (1, 230, 180, 8)\noutput: (1, 230, 180)'
p3098
sS'collapsed'
p3099
I00
sS'inport'
p3100
I00
sS'visible'
p3101
I01
sS'wordwrap'
p3102
I00
sS'id'
p3103
I139909183364600
ssa(dp3104
g39
S"<class 'gpi.widgets.ExclusiveRadioButtons'>"
p3105
sg41
g1084
sg43
(dp3106
S'outport'
p3107
I00
sS'quietval'
p3108
Nsg47
I5
sS'collapsed'
p3109
I00
sS'inport'
p3110
I00
sS'visible'
p3111
I01
sS'id'
p3112
I139909183467600
ssa(dp3113
g39
S"<class 'gpi.widgets.PushButton'>"
p3114
sg41
g769
sg43
(dp3115
S'outport'
p3116
I00
sS'quietval'
p3117
Nsg47
I01
sS'collapsed'
p3118
I00
sS'inport'
p3119
I00
sS'visible'
p3120
I01
sS'toggle'
p3121
I01
sS'button_title'
p3122
g74
sS'id'
p3123
I139909183469728
ssa(dp3124
g39
S"<class 'gpi.widgets.PushButton'>"
p3125
sg41
S'Collapse All'
p3126
sg43
(dp3127
S'outport'
p3128
I00
sS'quietval'
p3129
Nsg47
I00
sS'collapsed'
p3130
I00
sS'inport'
p3131
I00
sS'visible'
p3132
I01
sS'toggle'
p3133
I01
sS'button_title'
p3134
g74
sS'id'
p3135
I139909183470488
ssa(dp3136
g39
S"<class 'gpi.widgets.ExclusivePushButtons'>"
p3137
sg41
g1573
sg43
(dp3138
S'outport'
p3139
I00
sS'quietval'
p3140
Nsg47
I0
sS'collapsed'
p3141
I00
sS'inport'
p3142
I00
sS'visible'
p3143
I01
sS'id'
p3144
I139909183471248
ssa(dp3145
g39
S"<class 'gpi.widgets.PushButton'>"
p3146
sg41
S'Span Entire Dimension'
p3147
sg43
(dp3148
S'outport'
p3149
I00
sS'quietval'
p3150
Nsg47
I01
sS'collapsed'
p3151
I00
sS'inport'
p3152
I00
sS'visible'
p3153
I01
sS'toggle'
p3154
I01
sS'button_title'
p3155
g74
sS'id'
p3156
I139909183464112
ssa(dp3157
g39
S"<class 'gpi.widgets.Slider'>"
p3158
sg41
S'Dimension Start_Index'
p3159
sg43
(dp3160
S'outport'
p3161
I00
sS'quietval'
p3162
Nsg47
I0
sS'min'
p3163
I0
sS'max'
p3164
I8
sS'collapsed'
p3165
I00
sS'inport'
p3166
I00
sS'visible'
p3167
I00
sS'id'
p3168
I139909183464872
ssa(dp3169
g39
S"<class 'gpi.widgets.Slider'>"
p3170
sg41
S'Dimension Stop_Index'
p3171
sg43
(dp3172
S'outport'
p3173
I00
sS'quietval'
p3174
Nsg47
I0
sS'min'
p3175
I0
sS'max'
p3176
I8
sS'collapsed'
p3177
I00
sS'inport'
p3178
I00
sS'visible'
p3179
I00
sS'id'
p3180
I139909183466088
ssa(dp3181
g39
S"<class 'gpi.widgets.PushButton'>"
p3182
sg41
S'Non-Zero'
p3183
sg43
(dp3184
S'outport'
p3185
I00
sS'quietval'
p3186
Nsg47
I00
sS'collapsed'
p3187
I00
sS'inport'
p3188
I00
sS'visible'
p3189
I00
sS'toggle'
p3190
I01
sS'button_title'
p3191
g74
sS'id'
p3192
I139909183467304
ssasg211
g779
ssg213
S'0.221439480782'
p3193
sg41
g1630
sg216
(lp3194
F-309.60237833216627
aF-181.22583442172623
asg218
(lp3195
(dp3196
g221
g222
sg223
I0
sg224
(lp3197
(dp3198
g227
(dp3199
g229
g222
sg230
I139909183460016
sg231
I0
sg232
I139909183361560
ssg233
(dp3200
g229
g235
sg230
I139909183479288
sg231
I0
sg232
I139909183462448
ssasg236
Nsg237
I65540
sg238
I100
sg239
I139909183460016
sa(dp3201
g221
g789
sg223
I0
sg224
(lp3202
(dp3203
g227
(dp3204
g229
g222
sg230
I139909059092264
sg231
I0
sg232
I139909164623576
ssg233
(dp3205
g229
g789
sg230
I139909183460168
sg231
I0
sg232
I139909183361560
ssasg236
Nsg237
I65541
sg238
Nsg239
I139909183460168
sa(dp3206
g221
S'Collapse All Dims'
p3207
sg223
I1
sg224
(lp3208
sg236
Nsg237
I65541
sg238
Nsg239
I139909183460320
sa(dp3209
g221
S'Max Val Index'
p3210
sg223
I2
sg224
(lp3211
sg236
Nsg237
I65541
sg238
Nsg239
I139909183460472
sasg242
S'0.017574429512'
p3212
sg244
g1651
sg239
I139909183361560
sg246
S'0.20386505127'
p3213
sa(dp3214
g34
(dp3215
g36
(lp3216
(dp3217
g39
S"<class 'gpi.widgets.ExclusivePushButtons'>"
p3218
sg41
S'Regularization:'
p3219
sg43
(dp3220
S'outport'
p3221
I00
sS'quietval'
p3222
Nsg47
I0
sS'collapsed'
p3223
I00
sS'inport'
p3224
I00
sS'visible'
p3225
I01
sS'id'
p3226
I139909184403312
ssa(dp3227
g39
S"<class 'gpi.widgets.DoubleSpinBox'>"
p3228
sg41
S'regularization parameter'
p3229
sg43
(dp3230
S'outport'
p3231
I00
sS'quietval'
p3232
Nsg47
F0.0
sS'min'
p3233
F-1.7976931348623157e+308
sS'max'
p3234
F1.7976931348623157e+308
sS'collapsed'
p3235
I00
sS'wrapping'
p3236
I00
sS'immediate'
p3237
I00
sS'label'
p3238
g74
sS'singlestep'
p3239
F1.0
sS'visible'
p3240
I01
sS'inport'
p3241
I00
sS'decimals'
p3242
I2
sS'id'
p3243
I139909184403920
ssasg211
g779
ssg213
S'1.46636795998'
p3244
sg41
S'POCSense'
p3245
sg216
(lp3246
F-91.66528579858631
aF220.94895769656281
asg218
(lp3247
(dp3248
g221
g1046
sg223
I0
sg224
(lp3249
(dp3250
g227
(dp3251
g229
g1046
sg230
I139909184404832
sg231
I0
sg232
I139909184367816
ssg233
(dp3252
g229
g235
sg230
I139909183479288
sg231
I0
sg232
I139909183462448
ssasg236
Nsg237
I65540
sg238
I100
sg239
I139909184404832
sa(dp3253
g221
g977
sg223
I1
sg224
(lp3254
(dp3255
g227
(dp3256
g229
g977
sg230
I139909184404984
sg231
I1
sg232
I139909184367816
ssg233
(dp3257
g229
g235
sg230
I139909182269752
sg231
I0
sg232
I139909182722432
ssasg236
Nsg237
I65540
sg238
I100
sg239
I139909184404984
sa(dp3258
g221
g1131
sg223
I0
sg224
(lp3259
(dp3260
g227
(dp3261
g229
g1126
sg230
I139909184501464
sg231
I0
sg232
I139909184479616
ssg233
(dp3262
g229
g1131
sg230
I139909184405136
sg231
I0
sg232
I139909184367816
ssasg236
Nsg237
I65541
sg238
Nsg239
I139909184405136
sasg242
S'0.280035018921'
p3263
sg244
S'bart.gpi.POCSense'
p3264
sg239
I139909184367816
sg246
S'1.18633294106'
p3265
sa(dp3266
g34
(dp3267
g36
(lp3268
(dp3269
g39
S"<class 'gpi.widgets.ExclusivePushButtons'>"
p3270
sg41
S'Complex Display'
p3271
sg43
(dp3272
S'outport'
p3273
I00
sS'quietval'
p3274
Nsg47
I2
sS'collapsed'
p3275
I00
sS'inport'
p3276
I00
sS'visible'
p3277
I00
sS'id'
p3278
I139909182468632
ssa(dp3279
g39
S"<class 'gpi.widgets.ExclusivePushButtons'>"
p3280
sg41
S'Color Map'
p3281
sg43
(dp3282
S'outport'
p3283
I00
sS'quietval'
p3284
Nsg47
I0
sS'collapsed'
p3285
I01
sS'inport'
p3286
I00
sS'visible'
p3287
I01
sS'id'
p3288
I139909182469696
ssa(dp3289
g39
S"<class 'gpi.widgets.SpinBox'>"
p3290
sg41
S'Edge Pixels'
p3291
sg43
(dp3292
S'outport'
p3293
I00
sS'quietval'
p3294
Nsg47
I0
sS'min'
p3295
I0
sS'max'
p3296
I2147483647
sS'collapsed'
p3297
I00
sS'wrapping'
p3298
I00
sS'immediate'
p3299
I00
sS'label'
p3300
g74
sS'singlestep'
p3301
I1
sS'visible'
p3302
I00
sS'inport'
p3303
I00
sS'id'
p3304
I139909182470912
ssa(dp3305
g39
S"<class 'gpi.widgets.SpinBox'>"
p3306
sg41
S'Black Pixels'
p3307
sg43
(dp3308
S'outport'
p3309
I00
sS'quietval'
p3310
Nsg47
I0
sS'min'
p3311
I0
sS'max'
p3312
I2147483647
sS'collapsed'
p3313
I00
sS'wrapping'
p3314
I00
sS'immediate'
p3315
I00
sS'label'
p3316
g74
sS'singlestep'
p3317
I1
sS'visible'
p3318
I00
sS'inport'
p3319
I00
sS'id'
p3320
I139909182471824
ssa(dp3321
g39
S"<class 'gpi.widgets.DisplayBox'>"
p3322
sg41
S'Viewport:'
p3323
sg43
(dp3324
S'outport'
p3325
I00
sS'scale'
p3326
F1.0
sS'quietval'
p3327
Nsg47
NsS'collapsed'
p3328
I00
sS'interp'
p3329
I00
sS'inport'
p3330
I00
sS'visible'
p3331
I01
sS'noscroll'
p3332
I01
sS'points'
p3333
NsS'line'
p3334
NsS'id'
p3335
I139909182476976
ssa(dp3336
g39
S"<class '/opt/gpi/node/core/display/GPI/ImageDisplay_GPI.WindowLevel'>"
p3337
sg41
S'L W F C:'
p3338
sg43
(dp3339
S'outport'
p3340
I00
sS'quietval'
p3341
Nsg47
(dp3342
g117
I100
sg118
I0
sg119
I100
sg120
I50
ssS'min'
p3343
I0
sS'max'
p3344
I100
sS'collapsed'
p3345
I00
sS'inport'
p3346
I00
sS'visible'
p3347
I01
sS'id'
p3348
I139909182479408
ssa(dp3349
g39
S"<class 'gpi.widgets.ExclusivePushButtons'>"
p3350
sg41
S'Scalar Display'
p3351
sg43
(dp3352
S'outport'
p3353
I00
sS'quietval'
p3354
Nsg47
I0
sS'collapsed'
p3355
I00
sS'inport'
p3356
I00
sS'visible'
p3357
I01
sS'id'
p3358
I139909182484264
ssa(dp3359
g39
S"<class 'gpi.widgets.DoubleSpinBox'>"
p3360
sg41
g139
sg43
(dp3361
S'outport'
p3362
I00
sS'quietval'
p3363
Nsg47
F1.0
sS'min'
p3364
F0.1
sS'max'
p3365
F10.0
sS'collapsed'
p3366
I00
sS'wrapping'
p3367
I00
sS'immediate'
p3368
I00
sS'label'
p3369
g74
sS'singlestep'
p3370
F0.05
sS'visible'
p3371
I01
sS'inport'
p3372
I00
sS'decimals'
p3373
I3
sS'id'
p3374
I139909182493360
ssa(dp3375
g39
S"<class 'gpi.widgets.ExclusivePushButtons'>"
p3376
sg41
S'Zero Ref'
p3377
sg43
(dp3378
S'outport'
p3379
I00
sS'quietval'
p3380
Nsg47
I0
sS'collapsed'
p3381
I00
sS'inport'
p3382
I00
sS'visible'
p3383
I01
sS'id'
p3384
I139909182494272
ssa(dp3385
g39
S"<class 'gpi.widgets.PushButton'>"
p3386
sg41
S'Fix Range'
p3387
sg43
(dp3388
S'outport'
p3389
I00
sS'quietval'
p3390
Nsg47
I00
sS'collapsed'
p3391
I00
sS'inport'
p3392
I00
sS'visible'
p3393
I01
sS'toggle'
p3394
I01
sS'button_title'
p3395
VAuto-Range On
p3396
sS'id'
p3397
I139909182495184
ssa(dp3398
g39
S"<class 'gpi.widgets.DoubleSpinBox'>"
p3399
sg41
S'Range Min'
p3400
sg43
(dp3401
S'outport'
p3402
I00
sS'quietval'
p3403
Nsg47
F0.0
sS'min'
p3404
F-1.7976931348623157e+308
sS'max'
p3405
F1.7976931348623157e+308
sS'collapsed'
p3406
I00
sS'wrapping'
p3407
I00
sS'immediate'
p3408
I00
sS'label'
p3409
g74
sS'singlestep'
p3410
F1.0
sS'visible'
p3411
I01
sS'inport'
p3412
I00
sS'decimals'
p3413
I2
sS'id'
p3414
I139909182495944
ssa(dp3415
g39
S"<class 'gpi.widgets.DoubleSpinBox'>"
p3416
sg41
S'Range Max'
p3417
sg43
(dp3418
S'outport'
p3419
I00
sS'quietval'
p3420
Nsg47
F0.18
sS'min'
p3421
F-1.7976931348623157e+308
sS'max'
p3422
F1.7976931348623157e+308
sS'collapsed'
p3423
I00
sS'wrapping'
p3424
I00
sS'immediate'
p3425
I00
sS'label'
p3426
g74
sS'singlestep'
p3427
F1.0
sS'visible'
p3428
I01
sS'inport'
p3429
I00
sS'decimals'
p3430
I2
sS'id'
p3431
I139909182505192
ssasg211
S'zf_rss'
p3432
ssg213
S'0.0019683043162'
p3433
sg41
g215
sg216
(lp3434
F-417.1743389672403
aF-49.3000514830933
asg218
(lp3435
(dp3436
g221
g222
sg223
I0
sg224
(lp3437
(dp3438
g227
(dp3439
g229
g222
sg230
I139909182506104
sg231
I0
sg232
I139909182433136
ssg233
(dp3440
g229
g235
sg230
I139909181556744
sg231
I0
sg232
I139909172904016
ssasg236
Nsg237
I65540
sg238
I100
sg239
I139909182506104
sa(dp3441
g221
g235
sg223
I0
sg224
(lp3442
sg236
Nsg237
I65541
sg238
Nsg239
I139909182506256
sasg242
S'0.0012830872549'
p3443
sg244
g245
sg239
I139909182433136
sg246
S'0.00217199325562'
p3444
sa(dp3445
g34
(dp3446
g36
(lp3447
(dp3448
g39
S"<class 'gpi.widgets.ExclusivePushButtons'>"
p3449
sg41
g1074
sg43
(dp3450
S'outport'
p3451
I00
sS'quietval'
p3452
Nsg47
I0
sS'collapsed'
p3453
I00
sS'inport'
p3454
I00
sS'visible'
p3455
I01
sS'id'
p3456
I139909184193048
ssa(dp3457
g39
S"<class 'gpi.widgets.ExclusiveRadioButtons'>"
p3458
sg41
g1084
sg43
(dp3459
S'outport'
p3460
I00
sS'quietval'
p3461
Nsg47
I1
sS'collapsed'
p3462
I00
sS'inport'
p3463
I00
sS'visible'
p3464
I01
sS'id'
p3465
I139909184193808
ssa(dp3466
g39
S"<class 'gpi.widgets.DoubleSpinBox'>"
p3467
sg41
g1094
sg43
(dp3468
S'outport'
p3469
I00
sS'quietval'
p3470
Nsg47
F0.0
sS'min'
p3471
F-1.7976931348623157e+308
sS'max'
p3472
F1.7976931348623157e+308
sS'collapsed'
p3473
I00
sS'wrapping'
p3474
I00
sS'immediate'
p3475
I00
sS'label'
p3476
g74
sS'singlestep'
p3477
F1.0
sS'visible'
p3478
I00
sS'inport'
p3479
I00
sS'decimals'
p3480
I5
sS'id'
p3481
I139909184210496
ssa(dp3482
g39
S"<class 'gpi.widgets.PushButton'>"
p3483
sg41
g1111
sg43
(dp3484
S'outport'
p3485
I00
sS'quietval'
p3486
Nsg47
I01
sS'collapsed'
p3487
I00
sS'inport'
p3488
I00
sS'visible'
p3489
I01
sS'toggle'
p3490
I01
sS'button_title'
p3491
g74
sS'id'
p3492
I139909184211408
ssasg211
g779
ssg213
S'0.341818451881'
p3493
sg41
g1122
sg216
(lp3494
F179.5168019960312
aF131.29474193689484
asg218
(lp3495
(dp3496
g221
g1126
sg223
I0
sg224
(lp3497
(dp3498
g227
(dp3499
g229
g1126
sg230
I139909184212168
sg231
I0
sg232
I139909282962632
ssg233
(dp3500
g229
g1131
sg230
I139909182699528
sg231
I0
sg232
I139909182678592
ssasg236
Nsg237
I65540
sg238
I200
sg239
I139909184212168
sa(dp3501
g221
g1133
sg223
I1
sg224
(lp3502
(dp3503
g227
(dp3504
g229
g1133
sg230
I139909184212320
sg231
I1
sg232
I139909282962632
ssg233
(dp3505
g229
g235
sg230
I139909181925232
sg231
I0
sg232
I139909181790976
ssasg236
Nsg237
I65540
sg238
I200
sg239
I139909184212320
sa(dp3506
g221
g235
sg223
I0
sg224
(lp3507
(dp3508
g227
(dp3509
g229
g222
sg230
I139909184285136
sg231
I0
sg232
I139909184219448
ssg233
(dp3510
g229
g235
sg230
I139909184212472
sg231
I0
sg232
I139909282962632
ssasg236
Nsg237
I65541
sg238
Nsg239
I139909184212472
sasg242
S'0.311285772469'
p3511
sg244
g1144
sg239
I139909282962632
sg246
S'0.203723907471'
p3512
sa(dp3513
g34
(dp3514
g36
(lp3515
(dp3516
g39
S"<class 'gpi.widgets.TextBox'>"
p3517
sg41
S'Info:'
p3518
sg43
(dp3519
S'openExternalLinks'
p3520
I00
sS'outport'
p3521
I00
sS'quietval'
p3522
Nsg47
S'Input Dimensions: (230, 180, 8)\nInput Size: 331200\nOutput Dimensions: (460, 720)\nOutput Size: 331200\n'
p3523
sS'collapsed'
p3524
I00
sS'inport'
p3525
I00
sS'visible'
p3526
I01
sS'wordwrap'
p3527
I00
sS'id'
p3528
I139909038354064
ssa(dp3529
g39
S"<class 'gpi.widgets.ExclusiveRadioButtons'>"
p3530
sg41
g1084
sg43
(dp3531
S'outport'
p3532
I00
sS'quietval'
p3533
Nsg47
I8
sS'collapsed'
p3534
I00
sS'inport'
p3535
I00
sS'visible'
p3536
I01
sS'id'
p3537
I139909029531880
ssa(dp3538
g39
S"<class 'gpi.widgets.SpinBox'>"
p3539
sg41
S'# Dimensions'
p3540
sg43
(dp3541
S'outport'
p3542
I00
sS'quietval'
p3543
Nsg47
I2
sS'min'
p3544
I-2147483648
sS'max'
p3545
I2147483647
sS'collapsed'
p3546
I00
sS'wrapping'
p3547
I00
sS'immediate'
p3548
I00
sS'label'
p3549
g74
sS'singlestep'
p3550
I1
sS'visible'
p3551
I00
sS'inport'
p3552
I00
sS'id'
p3553
I139909029533552
ssa(dp3554
g39
S"<class 'gpi.widgets.SpinBox'>"
p3555
sg41
S'# Columns'
p3556
sg43
(dp3557
S'outport'
p3558
I00
sS'quietval'
p3559
Nsg47
I4
sS'min'
p3560
I-2147483648
sS'max'
p3561
I2147483647
sS'collapsed'
p3562
I00
sS'wrapping'
p3563
I00
sS'immediate'
p3564
I00
sS'label'
p3565
g74
sS'singlestep'
p3566
I1
sS'visible'
p3567
I01
sS'inport'
p3568
I00
sS'id'
p3569
I139909029534464
ssa(dp3570
g39
S"<class 'gpi.widgets.SpinBox'>"
p3571
sg41
S'# Rows'
p3572
sg43
(dp3573
S'outport'
p3574
I00
sS'quietval'
p3575
Nsg47
I2
sS'min'
p3576
I-2147483648
sS'max'
p3577
I2147483647
sS'collapsed'
p3578
I00
sS'wrapping'
p3579
I00
sS'immediate'
p3580
I00
sS'label'
p3581
g74
sS'singlestep'
p3582
I1
sS'visible'
p3583
I01
sS'inport'
p3584
I00
sS'id'
p3585
I139909029535376
ssa(dp3586
g39
S"<class 'gpi.widgets.SpinBox'>"
p3587
sg41
S'Dimension[-1]'
p3588
sg43
(dp3589
S'outport'
p3590
I00
sS'quietval'
p3591
Nsg47
I8
sS'min'
p3592
I1
sS'max'
p3593
I2147483647
sS'collapsed'
p3594
I00
sS'wrapping'
p3595
I00
sS'immediate'
p3596
I00
sS'label'
p3597
g74
sS'singlestep'
p3598
I1
sS'visible'
p3599
I00
sS'inport'
p3600
I00
sS'id'
p3601
I139909029536432
ssa(dp3602
g39
S"<class 'gpi.widgets.SpinBox'>"
p3603
sg41
S'Dimension[-2]'
p3604
sg43
(dp3605
S'outport'
p3606
I00
sS'quietval'
p3607
Nsg47
I180
sS'min'
p3608
I1
sS'max'
p3609
I2147483647
sS'collapsed'
p3610
I00
sS'wrapping'
p3611
I00
sS'immediate'
p3612
I00
sS'label'
p3613
g74
sS'singlestep'
p3614
I1
sS'visible'
p3615
I00
sS'inport'
p3616
I00
sS'id'
p3617
I139909029537344
ssa(dp3618
g39
S"<class 'gpi.widgets.SpinBox'>"
p3619
sg41
S'Dimension[-3]'
p3620
sg43
(dp3621
S'outport'
p3622
I00
sS'quietval'
p3623
Nsg47
I230
sS'min'
p3624
I1
sS'max'
p3625
I2147483647
sS'collapsed'
p3626
I00
sS'wrapping'
p3627
I00
sS'immediate'
p3628
I00
sS'label'
p3629
g74
sS'singlestep'
p3630
I1
sS'visible'
p3631
I00
sS'inport'
p3632
I00
sS'id'
p3633
I139909029538256
ssa(dp3634
g39
S"<class 'gpi.widgets.SpinBox'>"
p3635
sg41
S'Dimension[-4]'
p3636
sg43
(dp3637
S'outport'
p3638
I00
sS'quietval'
p3639
Nsg47
I0
sS'min'
p3640
I-2147483648
sS'max'
p3641
I2147483647
sS'collapsed'
p3642
I00
sS'wrapping'
p3643
I00
sS'immediate'
p3644
I00
sS'label'
p3645
g74
sS'singlestep'
p3646
I1
sS'visible'
p3647
I00
sS'inport'
p3648
I00
sS'id'
p3649
I139909029539168
ssa(dp3650
g39
S"<class 'gpi.widgets.SpinBox'>"
p3651
sg41
S'Dimension[-5]'
p3652
sg43
(dp3653
S'outport'
p3654
I00
sS'quietval'
p3655
Nsg47
I0
sS'min'
p3656
I-2147483648
sS'max'
p3657
I2147483647
sS'collapsed'
p3658
I00
sS'wrapping'
p3659
I00
sS'immediate'
p3660
I00
sS'label'
p3661
g74
sS'singlestep'
p3662
I1
sS'visible'
p3663
I00
sS'inport'
p3664
I00
sS'id'
p3665
I139909029548416
ssa(dp3666
g39
S"<class 'gpi.widgets.SpinBox'>"
p3667
sg41
S'Dimension[-6]'
p3668
sg43
(dp3669
S'outport'
p3670
I00
sS'quietval'
p3671
Nsg47
I0
sS'min'
p3672
I-2147483648
sS'max'
p3673
I2147483647
sS'collapsed'
p3674
I00
sS'wrapping'
p3675
I00
sS'immediate'
p3676
I00
sS'label'
p3677
g74
sS'singlestep'
p3678
I1
sS'visible'
p3679
I00
sS'inport'
p3680
I00
sS'id'
p3681
I139909029549328
ssa(dp3682
g39
S"<class 'gpi.widgets.SpinBox'>"
p3683
sg41
S'Dimension[-7]'
p3684
sg43
(dp3685
S'outport'
p3686
I00
sS'quietval'
p3687
Nsg47
I0
sS'min'
p3688
I-2147483648
sS'max'
p3689
I2147483647
sS'collapsed'
p3690
I00
sS'wrapping'
p3691
I00
sS'immediate'
p3692
I00
sS'label'
p3693
g74
sS'singlestep'
p3694
I1
sS'visible'
p3695
I00
sS'inport'
p3696
I00
sS'id'
p3697
I139909029550240
ssa(dp3698
g39
S"<class 'gpi.widgets.SpinBox'>"
p3699
sg41
S'Dimension[-8]'
p3700
sg43
(dp3701
S'outport'
p3702
I00
sS'quietval'
p3703
Nsg47
I0
sS'min'
p3704
I-2147483648
sS'max'
p3705
I2147483647
sS'collapsed'
p3706
I00
sS'wrapping'
p3707
I00
sS'immediate'
p3708
I00
sS'label'
p3709
g74
sS'singlestep'
p3710
I1
sS'visible'
p3711
I00
sS'inport'
p3712
I00
sS'id'
p3713
I139909029551152
ssa(dp3714
g39
S"<class 'gpi.widgets.SpinBox'>"
p3715
sg41
S'Dimension[-9]'
p3716
sg43
(dp3717
S'outport'
p3718
I00
sS'quietval'
p3719
Nsg47
I0
sS'min'
p3720
I-2147483648
sS'max'
p3721
I2147483647
sS'collapsed'
p3722
I00
sS'wrapping'
p3723
I00
sS'immediate'
p3724
I00
sS'label'
p3725
g74
sS'singlestep'
p3726
I1
sS'visible'
p3727
I00
sS'inport'
p3728
I00
sS'id'
p3729
I139909029560400
ssa(dp3730
g39
S"<class 'gpi.widgets.SpinBox'>"
p3731
sg41
S'Dimension[-10]'
p3732
sg43
(dp3733
S'outport'
p3734
I00
sS'quietval'
p3735
Nsg47
I0
sS'min'
p3736
I-2147483648
sS'max'
p3737
I2147483647
sS'collapsed'
p3738
I00
sS'wrapping'
p3739
I00
sS'immediate'
p3740
I00
sS'label'
p3741
g74
sS'singlestep'
p3742
I1
sS'visible'
p3743
I00
sS'inport'
p3744
I00
sS'id'
p3745
I139909029561312
ssa(dp3746
g39
S"<class 'gpi.widgets.SpinBox'>"
p3747
sg41
S'Dimension[-11]'
p3748
sg43
(dp3749
S'outport'
p3750
I00
sS'quietval'
p3751
Nsg47
I0
sS'min'
p3752
I-2147483648
sS'max'
p3753
I2147483647
sS'collapsed'
p3754
I00
sS'wrapping'
p3755
I00
sS'immediate'
p3756
I00
sS'label'
p3757
g74
sS'singlestep'
p3758
I1
sS'visible'
p3759
I00
sS'inport'
p3760
I00
sS'id'
p3761
I139909029562224
ssa(dp3762
g39
S"<class 'gpi.widgets.SpinBox'>"
p3763
sg41
S'Dimension[-12]'
p3764
sg43
(dp3765
S'outport'
p3766
I00
sS'quietval'
p3767
Nsg47
I0
sS'min'
p3768
I-2147483648
sS'max'
p3769
I2147483647
sS'collapsed'
p3770
I00
sS'wrapping'
p3771
I00
sS'immediate'
p3772
I00
sS'label'
p3773
g74
sS'singlestep'
p3774
I1
sS'visible'
p3775
I00
sS'inport'
p3776
I00
sS'id'
p3777
I139909029563136
ssa(dp3778
g39
S"<class 'gpi.widgets.SpinBox'>"
p3779
sg41
S'Dimension[-13]'
p3780
sg43
(dp3781
S'outport'
p3782
I00
sS'quietval'
p3783
Nsg47
I0
sS'min'
p3784
I-2147483648
sS'max'
p3785
I2147483647
sS'collapsed'
p3786
I00
sS'wrapping'
p3787
I00
sS'immediate'
p3788
I00
sS'label'
p3789
g74
sS'singlestep'
p3790
I1
sS'visible'
p3791
I00
sS'inport'
p3792
I00
sS'id'
p3793
I139909029564048
ssa(dp3794
g39
S"<class 'gpi.widgets.NonExclusivePushButtons'>"
p3795
sg41
S'Selection'
p3796
sg43
(dp3797
S'outport'
p3798
I00
sS'quietval'
p3799
Nsg47
(lp3800
sS'collapsed'
p3801
I00
sS'inport'
p3802
I00
sS'visible'
p3803
I00
sS'id'
p3804
I139909029569200
ssa(dp3805
g39
S"<class 'gpi.widgets.ExclusivePushButtons'>"
p3806
sg41
S'Tile Dimension'
p3807
sg43
(dp3808
S'outport'
p3809
I00
sS'quietval'
p3810
Nsg47
I2
sS'collapsed'
p3811
I00
sS'inport'
p3812
I00
sS'visible'
p3813
I01
sS'id'
p3814
I139909029571480
ssa(dp3815
g39
S"<class 'gpi.widgets.PushButton'>"
p3816
sg41
g769
sg43
(dp3817
S'outport'
p3818
I00
sS'quietval'
p3819
Nsg47
I01
sS'collapsed'
p3820
I00
sS'inport'
p3821
I00
sS'visible'
p3822
I01
sS'toggle'
p3823
I01
sS'button_title'
p3824
g74
sS'id'
p3825
I139909029572240
ssa(dp3826
g39
S"<class 'gpi.widgets.PushButton'>"
p3827
sg41
S'Reset'
p3828
sg43
(dp3829
S'outport'
p3830
I00
sS'quietval'
p3831
Nsg47
I00
sS'collapsed'
p3832
I00
sS'inport'
p3833
I00
sS'visible'
p3834
I01
sS'toggle'
p3835
I01
sS'button_title'
p3836
g74
sS'id'
p3837
I139909029573144
ssasg211
g779
ssg213
S'0.165876150131'
p3838
sg41
S'Dimensions'
p3839
sg216
(lp3840
F247.24175991631586
aF-250.9357333880607
asg218
(lp3841
(dp3842
g221
g222
sg223
I0
sg224
(lp3843
(dp3844
g227
(dp3845
g229
g222
sg230
I139909029573904
sg231
I0
sg232
I139909038351632
ssg233
(dp3846
g229
g235
sg230
I139909181740608
sg231
I0
sg232
I139909182088160
ssasg236
Nsg237
I65540
sg238
I100
sg239
I139909029573904
sa(dp3847
g221
g235
sg223
I0
sg224
(lp3848
(dp3849
g227
(dp3850
g229
g222
sg230
I139909184584904
sg231
I0
sg232
I139909184532560
ssg233
(dp3851
g229
g235
sg230
I139909029574056
sg231
I0
sg232
I139909038351632
ssasg236
Nsg237
I65541
sg238
Nsg239
I139909029574056
sasg242
S'0.0405516589109'
p3852
sg244
S'core.shapers.Dimensions'
p3853
sg239
I139909038351632
sg246
S'0.22514796257'
p3854
sa(dp3855
g34
(dp3856
g36
(lp3857
(dp3858
g39
S"<class 'gpi.widgets.ExclusivePushButtons'>"
p3859
sg41
S'Complex Display'
p3860
sg43
(dp3861
S'outport'
p3862
I00
sS'quietval'
p3863
Nsg47
I4
sS'collapsed'
p3864
I00
sS'inport'
p3865
I00
sS'visible'
p3866
I01
sS'id'
p3867
I139909182027632
ssa(dp3868
g39
S"<class 'gpi.widgets.ExclusivePushButtons'>"
p3869
sg41
S'Color Map'
p3870
sg43
(dp3871
S'outport'
p3872
I00
sS'quietval'
p3873
Nsg47
I0
sS'collapsed'
p3874
I01
sS'inport'
p3875
I00
sS'visible'
p3876
I00
sS'id'
p3877
I139909182028696
ssa(dp3878
g39
S"<class 'gpi.widgets.SpinBox'>"
p3879
sg41
S'Edge Pixels'
p3880
sg43
(dp3881
S'outport'
p3882
I00
sS'quietval'
p3883
Nsg47
I0
sS'min'
p3884
I0
sS'max'
p3885
I2147483647
sS'collapsed'
p3886
I00
sS'wrapping'
p3887
I00
sS'immediate'
p3888
I00
sS'label'
p3889
g74
sS'singlestep'
p3890
I1
sS'visible'
p3891
I01
sS'inport'
p3892
I00
sS'id'
p3893
I139909182034152
ssa(dp3894
g39
S"<class 'gpi.widgets.SpinBox'>"
p3895
sg41
S'Black Pixels'
p3896
sg43
(dp3897
S'outport'
p3898
I00
sS'quietval'
p3899
Nsg47
I0
sS'min'
p3900
I0
sS'max'
p3901
I2147483647
sS'collapsed'
p3902
I00
sS'wrapping'
p3903
I00
sS'immediate'
p3904
I00
sS'label'
p3905
g74
sS'singlestep'
p3906
I1
sS'visible'
p3907
I01
sS'inport'
p3908
I00
sS'id'
p3909
I139909182035064
ssa(dp3910
g39
S"<class 'gpi.widgets.DisplayBox'>"
p3911
sg41
S'Viewport:'
p3912
sg43
(dp3913
S'outport'
p3914
I00
sS'scale'
p3915
F1.0
sS'quietval'
p3916
Nsg47
NsS'collapsed'
p3917
I01
sS'interp'
p3918
I00
sS'inport'
p3919
I00
sS'visible'
p3920
I01
sS'noscroll'
p3921
I01
sS'points'
p3922
NsS'line'
p3923
NsS'id'
p3924
I139909182035976
ssa(dp3925
g39
S"<class '/opt/gpi/node/core/display/GPI/ImageDisplay_GPI.WindowLevel'>"
p3926
sg41
S'L W F C:'
p3927
sg43
(dp3928
S'outport'
p3929
I00
sS'quietval'
p3930
Nsg47
(dp3931
g117
I100
sg118
I0
sg119
I100
sg120
I50
ssS'min'
p3932
I0
sS'max'
p3933
I100
sS'collapsed'
p3934
I00
sS'inport'
p3935
I00
sS'visible'
p3936
I01
sS'id'
p3937
I139909182042648
ssa(dp3938
g39
S"<class 'gpi.widgets.ExclusivePushButtons'>"
p3939
sg41
S'Scalar Display'
p3940
sg43
(dp3941
S'outport'
p3942
I00
sS'quietval'
p3943
Nsg47
I0
sS'collapsed'
p3944
I00
sS'inport'
p3945
I00
sS'visible'
p3946
I00
sS'id'
p3947
I139909182047504
ssa(dp3948
g39
S"<class 'gpi.widgets.DoubleSpinBox'>"
p3949
sg41
g139
sg43
(dp3950
S'outport'
p3951
I00
sS'quietval'
p3952
Nsg47
F1.0
sS'min'
p3953
F0.1
sS'max'
p3954
F10.0
sS'collapsed'
p3955
I00
sS'wrapping'
p3956
I00
sS'immediate'
p3957
I00
sS'label'
p3958
g74
sS'singlestep'
p3959
F0.05
sS'visible'
p3960
I01
sS'inport'
p3961
I00
sS'decimals'
p3962
I3
sS'id'
p3963
I139909182048264
ssa(dp3964
g39
S"<class 'gpi.widgets.ExclusivePushButtons'>"
p3965
sg41
S'Zero Ref'
p3966
sg43
(dp3967
S'outport'
p3968
I00
sS'quietval'
p3969
Nsg47
I0
sS'collapsed'
p3970
I00
sS'inport'
p3971
I00
sS'visible'
p3972
I00
sS'id'
p3973
I139909182049176
ssa(dp3974
g39
S"<class 'gpi.widgets.PushButton'>"
p3975
sg41
S'Fix Range'
p3976
sg43
(dp3977
S'outport'
p3978
I00
sS'quietval'
p3979
Nsg47
I00
sS'collapsed'
p3980
I00
sS'inport'
p3981
I00
sS'visible'
p3982
I01
sS'toggle'
p3983
I01
sS'button_title'
p3984
VAuto-Range On
p3985
sS'id'
p3986
I139909182050088
ssa(dp3987
g39
S"<class 'gpi.widgets.DoubleSpinBox'>"
p3988
sg41
S'Range Min'
p3989
sg43
(dp3990
S'outport'
p3991
I00
sS'quietval'
p3992
Nsg47
F0.0
sS'min'
p3993
F-1.7976931348623157e+308
sS'max'
p3994
F1.7976931348623157e+308
sS'collapsed'
p3995
I00
sS'wrapping'
p3996
I00
sS'immediate'
p3997
I00
sS'label'
p3998
g74
sS'singlestep'
p3999
F1.0
sS'visible'
p4000
I00
sS'inport'
p4001
I00
sS'decimals'
p4002
I2
sS'id'
p4003
I139909182059184
ssa(dp4004
g39
S"<class 'gpi.widgets.DoubleSpinBox'>"
p4005
sg41
S'Range Max'
p4006
sg43
(dp4007
S'outport'
p4008
I00
sS'quietval'
p4009
Nsg47
F1871.58
sS'min'
p4010
F-1.7976931348623157e+308
sS'max'
p4011
F1.7976931348623157e+308
sS'collapsed'
p4012
I00
sS'wrapping'
p4013
I00
sS'immediate'
p4014
I00
sS'label'
p4015
g74
sS'singlestep'
p4016
F1.0
sS'visible'
p4017
I00
sS'inport'
p4018
I00
sS'decimals'
p4019
I2
sS'id'
p4020
I139909182060096
ssasg211
g779
ssg213
S'0.0155730247498'
p4021
sg41
g215
sg216
(lp4022
F343.8105204362447
aF-101.04354325807846
asg218
(lp4023
(dp4024
g221
g222
sg223
I0
sg224
(lp4025
(dp4026
g227
(dp4027
g229
g222
sg230
I139909182061008
sg231
I0
sg232
I139909182508232
ssg233
(dp4028
g229
g1131
sg230
I139909184108704
sg231
I0
sg232
I139909184591424
ssasg236
Nsg237
I65540
sg238
I100
sg239
I139909182061008
sa(dp4029
g221
g235
sg223
I0
sg224
(lp4030
sg236
Nsg237
I65541
sg238
Nsg239
I139909182061160
sasg242
S'0.000524997711182'
p4031
sg244
g245
sg239
I139909182508232
sg246
S'0.0160980224609'
p4032
sa(dp4033
g34
(dp4034
g36
(lp4035
(dp4036
g39
S"<class 'gpi.widgets.TextBox'>"
p4037
sg41
S'I/O Info:'
p4038
sg43
(dp4039
S'openExternalLinks'
p4040
I00
sS'outport'
p4041
I00
sS'quietval'
p4042
Nsg47
S'input: (1, 230, 180)\noutput: (230, 180)'
p4043
sS'collapsed'
p4044
I00
sS'inport'
p4045
I00
sS'visible'
p4046
I01
sS'wordwrap'
p4047
I00
sS'id'
p4048
I139909059197240
ssa(dp4049
g39
S"<class '/opt/gpi/node/core/shapers/GPI/Reduce_GPI.ReduceSliders'>"
p4050
sg41
S'Dimension[-1]'
p4051
sg43
(dp4052
S'outport'
p4053
I00
sS'quietval'
p4054
Nsg47
(dp4055
g629
I180
sg119
I180
sg630
I3
sg631
I91
sg118
I1
ssS'min'
p4056
I1
sS'max'
p4057
I180
sS'collapsed'
p4058
I00
sS'inport'
p4059
I00
sS'visible'
p4060
I01
sS'id'
p4061
I139909059197696
ssa(dp4062
g39
S"<class '/opt/gpi/node/core/shapers/GPI/Reduce_GPI.ReduceSliders'>"
p4063
sg41
S'Dimension[-2]'
p4064
sg43
(dp4065
S'outport'
p4066
I00
sS'quietval'
p4067
Nsg47
(dp4068
g629
I230
sg119
I230
sg630
I3
sg631
I116
sg118
I1
ssS'min'
p4069
I1
sS'max'
p4070
I230
sS'collapsed'
p4071
I00
sS'inport'
p4072
I00
sS'visible'
p4073
I01
sS'id'
p4074
I139909059206800
ssa(dp4075
g39
S"<class '/opt/gpi/node/core/shapers/GPI/Reduce_GPI.ReduceSliders'>"
p4076
sg41
S'Dimension[-3]'
p4077
sg43
(dp4078
S'outport'
p4079
I00
sS'quietval'
p4080
Nsg47
(dp4081
g629
I1
sg119
I1
sg630
I2
sg631
I1
sg118
I1
ssS'min'
p4082
I1
sS'max'
p4083
I1
sS'collapsed'
p4084
I00
sS'inport'
p4085
I00
sS'visible'
p4086
I01
sS'id'
p4087
I139909059220144
ssa(dp4088
g39
S"<class '/opt/gpi/node/core/shapers/GPI/Reduce_GPI.ReduceSliders'>"
p4089
sg41
S'Dimension[-4]'
p4090
sg43
(dp4091
S'outport'
p4092
I00
sS'quietval'
p4093
Nsg47
(dp4094
g629
I1
sg119
I1
sg630
I3
sg631
I1
sg118
I1
ssS'min'
p4095
I1
sS'max'
p4096
I100
sS'collapsed'
p4097
I00
sS'inport'
p4098
I00
sS'visible'
p4099
I00
sS'id'
p4100
I139909059225152
ssa(dp4101
g39
S"<class '/opt/gpi/node/core/shapers/GPI/Reduce_GPI.ReduceSliders'>"
p4102
sg41
S'Dimension[-5]'
p4103
sg43
(dp4104
S'outport'
p4105
I00
sS'quietval'
p4106
Nsg47
(dp4107
g629
I1
sg119
I1
sg630
I3
sg631
I1
sg118
I1
ssS'min'
p4108
I1
sS'max'
p4109
I100
sS'collapsed'
p4110
I00
sS'inport'
p4111
I00
sS'visible'
p4112
I00
sS'id'
p4113
I139909059234256
ssa(dp4114
g39
S"<class '/opt/gpi/node/core/shapers/GPI/Reduce_GPI.ReduceSliders'>"
p4115
sg41
S'Dimension[-6]'
p4116
sg43
(dp4117
S'outport'
p4118
I00
sS'quietval'
p4119
Nsg47
(dp4120
g629
I1
sg119
I1
sg630
I3
sg631
I1
sg118
I1
ssS'min'
p4121
I1
sS'max'
p4122
I100
sS'collapsed'
p4123
I00
sS'inport'
p4124
I00
sS'visible'
p4125
I00
sS'id'
p4126
I139909059239264
ssa(dp4127
g39
S"<class '/opt/gpi/node/core/shapers/GPI/Reduce_GPI.ReduceSliders'>"
p4128
sg41
S'Dimension[-7]'
p4129
sg43
(dp4130
S'outport'
p4131
I00
sS'quietval'
p4132
Nsg47
(dp4133
g629
I1
sg119
I1
sg630
I3
sg631
I1
sg118
I1
ssS'min'
p4134
I1
sS'max'
p4135
I100
sS'collapsed'
p4136
I00
sS'inport'
p4137
I00
sS'visible'
p4138
I00
sS'id'
p4139
I139909059248512
ssa(dp4140
g39
S"<class '/opt/gpi/node/core/shapers/GPI/Reduce_GPI.ReduceSliders'>"
p4141
sg41
S'Dimension[-8]'
p4142
sg43
(dp4143
S'outport'
p4144
I00
sS'quietval'
p4145
Nsg47
(dp4146
g629
I1
sg119
I1
sg630
I3
sg631
I1
sg118
I1
ssS'min'
p4147
I1
sS'max'
p4148
I100
sS'collapsed'
p4149
I00
sS'inport'
p4150
I00
sS'visible'
p4151
I00
sS'id'
p4152
I139909059253520
ssa(dp4153
g39
S"<class '/opt/gpi/node/core/shapers/GPI/Reduce_GPI.ReduceSliders'>"
p4154
sg41
S'Dimension[-9]'
p4155
sg43
(dp4156
S'outport'
p4157
I00
sS'quietval'
p4158
Nsg47
(dp4159
g629
I1
sg119
I1
sg630
I3
sg631
I1
sg118
I1
ssS'min'
p4160
I1
sS'max'
p4161
I100
sS'collapsed'
p4162
I00
sS'inport'
p4163
I00
sS'visible'
p4164
I00
sS'id'
p4165
I139909059258528
ssa(dp4166
g39
S"<class '/opt/gpi/node/core/shapers/GPI/Reduce_GPI.ReduceSliders'>"
p4167
sg41
S'Dimension[-10]'
p4168
sg43
(dp4169
S'outport'
p4170
I00
sS'quietval'
p4171
Nsg47
(dp4172
g629
I1
sg119
I1
sg630
I3
sg631
I1
sg118
I1
ssS'min'
p4173
I1
sS'max'
p4174
I100
sS'collapsed'
p4175
I00
sS'inport'
p4176
I00
sS'visible'
p4177
I00
sS'id'
p4178
I139909059271728
ssa(dp4179
g39
S"<class 'gpi.widgets.PushButton'>"
p4180
sg41
g757
sg43
(dp4181
S'outport'
p4182
I00
sS'quietval'
p4183
Nsg47
I00
sS'collapsed'
p4184
I00
sS'inport'
p4185
I00
sS'visible'
p4186
I01
sS'toggle'
p4187
I01
sS'button_title'
p4188
g74
sS'id'
p4189
I139909059276880
ssa(dp4190
g39
S"<class 'gpi.widgets.PushButton'>"
p4191
sg41
g769
sg43
(dp4192
S'outport'
p4193
I00
sS'quietval'
p4194
Nsg47
I01
sS'collapsed'
p4195
I00
sS'inport'
p4196
I00
sS'visible'
p4197
I01
sS'toggle'
p4198
I01
sS'button_title'
p4199
g74
sS'id'
p4200
I139909059277640
ssasg211
g779
ssg213
S'0.216364383698'
p4201
sg41
g781
sg216
(lp4202
F-91.66528579858631
aF358.94895769656284
asg218
(lp4203
(dp4204
g221
g222
sg223
I0
sg224
(lp4205
(dp4206
g227
(dp4207
g229
g222
sg230
I139909059278400
sg231
I0
sg232
I139909059186016
ssg233
(dp4208
g229
S'Collapse Single Dim'
p4209
sg230
I139909181976808
sg231
I0
sg232
I139909181927208
ssasg236
Nsg237
I65540
sg238
I100
sg239
I139909059278400
sa(dp4210
g221
g235
sg223
I0
sg224
(lp4211
(dp4212
g227
(dp4213
g229
g222
sg230
I139909183736120
sg231
I0
sg232
I139909183806512
ssg233
(dp4214
g229
g235
sg230
I139909059278552
sg231
I0
sg232
I139909059186016
ssasg236
Nsg237
I65541
sg238
Nsg239
I139909059278552
sa(dp4215
g221
g796
sg223
I1
sg224
(lp4216
sg236
Nsg237
I65541
sg238
Nsg239
I139909059278704
sasg242
S'0.0195024482895'
p4217
sg244
g799
sg239
I139909059186016
sg246
S'0.199947118759'
p4218
sa(dp4219
g34
(dp4220
g36
(lp4221
(dp4222
g39
S"<class 'gpi.widgets.TextBox'>"
p4223
sg41
g1515
sg43
(dp4224
S'openExternalLinks'
p4225
I00
sS'outport'
p4226
I00
sS'quietval'
p4227
Nsg47
S'Ready'
p4228
sS'collapsed'
p4229
I00
sS'inport'
p4230
I00
sS'visible'
p4231
I01
sS'wordwrap'
p4232
I00
sS'id'
p4233
I139909183430888
ssa(dp4234
g39
S"<class 'gpi.widgets.TextBox'>"
p4235
sg41
g1528
sg43
(dp4236
S'openExternalLinks'
p4237
I00
sS'outport'
p4238
I00
sS'quietval'
p4239
Nsg47
S'input: (1, 230, 180, 8)\noutput: (1, 230, 180)'
p4240
sS'collapsed'
p4241
I00
sS'inport'
p4242
I00
sS'visible'
p4243
I01
sS'wordwrap'
p4244
I00
sS'id'
p4245
I139909183431344
ssa(dp4246
g39
S"<class 'gpi.widgets.ExclusiveRadioButtons'>"
p4247
sg41
g1084
sg43
(dp4248
S'outport'
p4249
I00
sS'quietval'
p4250
Nsg47
I5
sS'collapsed'
p4251
I00
sS'inport'
p4252
I00
sS'visible'
p4253
I01
sS'id'
p4254
I139909183431800
ssa(dp4255
g39
S"<class 'gpi.widgets.PushButton'>"
p4256
sg41
g769
sg43
(dp4257
S'outport'
p4258
I00
sS'quietval'
p4259
Nsg47
I01
sS'collapsed'
p4260
I00
sS'inport'
p4261
I00
sS'visible'
p4262
I01
sS'toggle'
p4263
I01
sS'button_title'
p4264
g74
sS'id'
p4265
I139909183433928
ssa(dp4266
g39
S"<class 'gpi.widgets.PushButton'>"
p4267
sg41
S'Collapse All'
p4268
sg43
(dp4269
S'outport'
p4270
I00
sS'quietval'
p4271
Nsg47
I00
sS'collapsed'
p4272
I00
sS'inport'
p4273
I00
sS'visible'
p4274
I01
sS'toggle'
p4275
I01
sS'button_title'
p4276
g74
sS'id'
p4277
I139909183348816
ssa(dp4278
g39
S"<class 'gpi.widgets.ExclusivePushButtons'>"
p4279
sg41
g1573
sg43
(dp4280
S'outport'
p4281
I00
sS'quietval'
p4282
Nsg47
I0
sS'collapsed'
p4283
I00
sS'inport'
p4284
I00
sS'visible'
p4285
I01
sS'id'
p4286
I139909183349576
ssa(dp4287
g39
S"<class 'gpi.widgets.PushButton'>"
p4288
sg41
S'Span Entire Dimension'
p4289
sg43
(dp4290
S'outport'
p4291
I00
sS'quietval'
p4292
Nsg47
I01
sS'collapsed'
p4293
I00
sS'inport'
p4294
I00
sS'visible'
p4295
I01
sS'toggle'
p4296
I01
sS'button_title'
p4297
g74
sS'id'
p4298
I139909183350488
ssa(dp4299
g39
S"<class 'gpi.widgets.Slider'>"
p4300
sg41
S'Dimension Start_Index'
p4301
sg43
(dp4302
S'outport'
p4303
I00
sS'quietval'
p4304
Nsg47
I0
sS'min'
p4305
I0
sS'max'
p4306
I8
sS'collapsed'
p4307
I00
sS'inport'
p4308
I00
sS'visible'
p4309
I00
sS'id'
p4310
I139909183351248
ssa(dp4311
g39
S"<class 'gpi.widgets.Slider'>"
p4312
sg41
S'Dimension Stop_Index'
p4313
sg43
(dp4314
S'outport'
p4315
I00
sS'quietval'
p4316
Nsg47
I0
sS'min'
p4317
I0
sS'max'
p4318
I8
sS'collapsed'
p4319
I00
sS'inport'
p4320
I00
sS'visible'
p4321
I00
sS'id'
p4322
I139909183352464
ssa(dp4323
g39
S"<class 'gpi.widgets.PushButton'>"
p4324
sg41
S'Non-Zero'
p4325
sg43
(dp4326
S'outport'
p4327
I00
sS'quietval'
p4328
Nsg47
I00
sS'collapsed'
p4329
I00
sS'inport'
p4330
I00
sS'visible'
p4331
I00
sS'toggle'
p4332
I01
sS'button_title'
p4333
g74
sS'id'
p4334
I139909182628832
ssasg211
g779
ssg213
S'0.23878455162'
p4335
sg41
g1630
sg216
(lp4336
F-417.1743389672403
aF-109.30005148309327
asg218
(lp4337
(dp4338
g221
g222
sg223
I0
sg224
(lp4339
(dp4340
g227
(dp4341
g229
g222
sg230
I139909182629592
sg231
I0
sg232
I139909183354432
ssg233
(dp4342
g229
g235
sg230
I139909182138072
sg231
I0
sg232
I139909182088616
ssasg236
Nsg237
I65540
sg238
I100
sg239
I139909182629592
sa(dp4343
g221
g2597
sg223
I0
sg224
(lp4344
(dp4345
g227
(dp4346
g229
g222
sg230
I139909181556592
sg231
I0
sg232
I139909172904016
ssg233
(dp4347
g229
g2597
sg230
I139909182629744
sg231
I0
sg232
I139909183354432
ssasg236
Nsg237
I65541
sg238
Nsg239
I139909182629744
sa(dp4348
g221
S'Collapse All Dims'
p4349
sg223
I1
sg224
(lp4350
sg236
Nsg237
I65541
sg238
Nsg239
I139909182629896
sa(dp4351
g221
S'Max Val Index'
p4352
sg223
I2
sg224
(lp4353
sg236
Nsg237
I65541
sg238
Nsg239
I139909182630048
sasg242
S'0.00307750701904'
p4354
sg244
g1651
sg239
I139909183354432
sg246
S'0.235707044601'
p4355
sa(dp4356
g34
(dp4357
g36
(lp4358
(dp4359
g39
S"<class 'gpi.widgets.PushButton'>"
p4360
sg41
S'SVD Econ'
p4361
sg43
(dp4362
S'outport'
p4363
I00
sS'quietval'
p4364
Nsg47
I00
sS'collapsed'
p4365
I00
sS'inport'
p4366
I00
sS'visible'
p4367
I01
sS'toggle'
p4368
I01
sS'button_title'
p4369
g74
sS'id'
p4370
I139909184364624
ssasg211
g779
ssg213
S'0.272318840027'
p4371
sg41
S'SVD'
p4372
sg216
(lp4373
F331.8105204362447
aF-73.04354325807846
asg218
(lp4374
(dp4375
g221
g1042
sg223
I0
sg224
(lp4376
(dp4377
g227
(dp4378
g229
g1042
sg230
I139909184365384
sg231
I0
sg232
I139909280720296
ssg233
(dp4379
g229
g1131
sg230
I139909184108704
sg231
I0
sg232
I139909184591424
ssasg236
Nsg237
I65540
sg238
I100
sg239
I139909184365384
sa(dp4380
g221
S'U'
p4381
sg223
I0
sg224
(lp4382
sg236
Nsg237
I65541
sg238
Nsg239
I139909184365536
sa(dp4383
g221
S'S'
p4384
sg223
I1
sg224
(lp4385
(dp4386
g227
(dp4387
g229
S'in0'
p4388
sg230
I139909183850200
sg231
I0
sg232
I139909184218992
ssg233
(dp4389
g229
g4384
sg230
I139909184365688
sg231
I1
sg232
I139909280720296
ssasg236
Nsg237
I65541
sg238
Nsg239
I139909184365688
sa(dp4390
g221
S'VH'
p4391
sg223
I2
sg224
(lp4392
sg236
Nsg237
I65541
sg238
Nsg239
I139909184365840
sasg242
S'0.0235660076141'
p4393
sg244
S'bart.gpi.SVD'
p4394
sg239
I139909280720296
sg246
S'0.295884847641'
p4395
sa(dp4396
g34
(dp4397
g36
(lp4398
(dp4399
g39
S"<class 'gpi.widgets.SpinBox'>"
p4400
sg41
S'calibration region size'
p4401
sg43
(dp4402
S'outport'
p4403
I00
sS'quietval'
p4404
Nsg47
I20
sS'min'
p4405
I1
sS'max'
p4406
I2147483647
sS'collapsed'
p4407
I00
sS'wrapping'
p4408
I00
sS'immediate'
p4409
I00
sS'label'
p4410
g74
sS'singlestep'
p4411
I1
sS'visible'
p4412
I01
sS'inport'
p4413
I00
sS'id'
p4414
I139909280921760
ssasg211
g779
ssg213
S'0.297990441322'
p4415
sg41
S'CalDir'
p4416
sg216
(lp4417
F174.2417599163158
aF-72.22195278291537
asg218
(lp4418
(dp4419
g221
g1042
sg223
I0
sg224
(lp4420
(dp4421
g227
(dp4422
g229
g1042
sg230
I139909280922672
sg231
I0
sg232
I139909282962936
ssg233
(dp4423
g229
g235
sg230
I139909183479288
sg231
I0
sg232
I139909183462448
ssasg236
Nsg237
I65540
sg238
I100
sg239
I139909280922672
sa(dp4424
g221
g1131
sg223
I0
sg224
(lp4425
(dp4426
g227
(dp4427
g229
g977
sg230
I139909182699376
sg231
I1
sg232
I139909182678592
ssg233
(dp4428
g229
g1131
sg230
I139909280922824
sg231
I0
sg232
I139909282962936
ssasg236
Nsg237
I65541
sg238
Nsg239
I139909280922824
sasg242
S'0.0374275445938'
p4429
sg244
S'bart.gpi.CalDir'
p4430
sg239
I139909282962936
sg246
S'0.260562896729'
p4431
sa(dp4432
g34
(dp4433
g36
(lp4434
(dp4435
g39
S"<class 'gpi.widgets.SpinBox'>"
p4436
sg41
S'kernel size'
p4437
sg43
(dp4438
S'outport'
p4439
I00
sS'quietval'
p4440
Nsg47
I6
sS'min'
p4441
I1
sS'max'
p4442
I2147483647
sS'collapsed'
p4443
I00
sS'wrapping'
p4444
I00
sS'immediate'
p4445
I00
sS'label'
p4446
g74
sS'singlestep'
p4447
I1
sS'visible'
p4448
I01
sS'inport'
p4449
I00
sS'id'
p4450
I139909184106728
ssa(dp4451
g39
S"<class 'gpi.widgets.SpinBox'>"
p4452
sg41
S'calibration region size'
p4453
sg43
(dp4454
S'outport'
p4455
I00
sS'quietval'
p4456
Nsg47
I20
sS'min'
p4457
I1
sS'max'
p4458
I2147483647
sS'collapsed'
p4459
I00
sS'wrapping'
p4460
I00
sS'immediate'
p4461
I00
sS'label'
p4462
g74
sS'singlestep'
p4463
I1
sS'visible'
p4464
I01
sS'inport'
p4465
I00
sS'id'
p4466
I139909184107640
ssasg211
g779
ssg213
S'0.262788534164'
p4467
sg41
S'CalMat'
p4468
sg216
(lp4469
F333.8105204362447
aF-128.04354325807847
asg218
(lp4470
(dp4471
g221
g1046
sg223
I0
sg224
(lp4472
(dp4473
g227
(dp4474
g229
g1046
sg230
I139909184108552
sg231
I0
sg232
I139909184591424
ssg233
(dp4475
g229
g235
sg230
I139909183479288
sg231
I0
sg232
I139909183462448
ssasg236
Nsg237
I65540
sg238
I100
sg239
I139909184108552
sa(dp4476
g221
g1131
sg223
I0
sg224
(lp4477
(dp4478
g227
(dp4479
g229
g1042
sg230
I139909184365384
sg231
I0
sg232
I139909280720296
ssg233
(dp4480
g229
g1131
sg230
I139909184108704
sg231
I0
sg232
I139909184591424
ssa(dp4481
g227
(dp4482
g229
g222
sg230
I139909182061008
sg231
I0
sg232
I139909182508232
ssg233
(dp4483
g229
g1131
sg230
I139909184108704
sg231
I0
sg232
I139909184591424
ssasg236
Nsg237
I65541
sg238
Nsg239
I139909184108704
sasg242
S'0.0104944705963'
p4484
sg244
S'bart.gpi.CalMat'
p4485
sg239
I139909184591424
sg246
S'0.252294063568'
p4486
sa(dp4487
g34
(dp4488
g36
(lp4489
(dp4490
g39
S"<class 'gpi.widgets.TextBox'>"
p4491
sg41
S'Info:'
p4492
sg43
(dp4493
S'openExternalLinks'
p4494
I00
sS'outport'
p4495
I00
sS'quietval'
p4496
Nsg47
S'Input Dimensions: (230, 180, 8)\nInput Size: 331200\nOutput Dimensions: (460, 720)\nOutput Size: 331200\n'
p4497
sS'collapsed'
p4498
I00
sS'inport'
p4499
I00
sS'visible'
p4500
I01
sS'wordwrap'
p4501
I00
sS'id'
p4502
I139909164534376
ssa(dp4503
g39
S"<class 'gpi.widgets.ExclusiveRadioButtons'>"
p4504
sg41
g1084
sg43
(dp4505
S'outport'
p4506
I00
sS'quietval'
p4507
Nsg47
I8
sS'collapsed'
p4508
I00
sS'inport'
p4509
I00
sS'visible'
p4510
I01
sS'id'
p4511
I139909164534832
ssa(dp4512
g39
S"<class 'gpi.widgets.SpinBox'>"
p4513
sg41
S'# Dimensions'
p4514
sg43
(dp4515
S'outport'
p4516
I00
sS'quietval'
p4517
Nsg47
I2
sS'min'
p4518
I-2147483648
sS'max'
p4519
I2147483647
sS'collapsed'
p4520
I00
sS'wrapping'
p4521
I00
sS'immediate'
p4522
I00
sS'label'
p4523
g74
sS'singlestep'
p4524
I1
sS'visible'
p4525
I00
sS'inport'
p4526
I00
sS'id'
p4527
I139909164540744
ssa(dp4528
g39
S"<class 'gpi.widgets.SpinBox'>"
p4529
sg41
S'# Columns'
p4530
sg43
(dp4531
S'outport'
p4532
I00
sS'quietval'
p4533
Nsg47
I4
sS'min'
p4534
I-2147483648
sS'max'
p4535
I2147483647
sS'collapsed'
p4536
I00
sS'wrapping'
p4537
I00
sS'immediate'
p4538
I00
sS'label'
p4539
g74
sS'singlestep'
p4540
I1
sS'visible'
p4541
I01
sS'inport'
p4542
I00
sS'id'
p4543
I139909164541656
ssa(dp4544
g39
S"<class 'gpi.widgets.SpinBox'>"
p4545
sg41
S'# Rows'
p4546
sg43
(dp4547
S'outport'
p4548
I00
sS'quietval'
p4549
Nsg47
I2
sS'min'
p4550
I-2147483648
sS'max'
p4551
I2147483647
sS'collapsed'
p4552
I00
sS'wrapping'
p4553
I00
sS'immediate'
p4554
I00
sS'label'
p4555
g74
sS'singlestep'
p4556
I1
sS'visible'
p4557
I01
sS'inport'
p4558
I00
sS'id'
p4559
I139909164542568
ssa(dp4560
g39
S"<class 'gpi.widgets.SpinBox'>"
p4561
sg41
S'Dimension[-1]'
p4562
sg43
(dp4563
S'outport'
p4564
I00
sS'quietval'
p4565
Nsg47
I8
sS'min'
p4566
I1
sS'max'
p4567
I2147483647
sS'collapsed'
p4568
I00
sS'wrapping'
p4569
I00
sS'immediate'
p4570
I00
sS'label'
p4571
g74
sS'singlestep'
p4572
I1
sS'visible'
p4573
I00
sS'inport'
p4574
I00
sS'id'
p4575
I139909164543480
ssa(dp4576
g39
S"<class 'gpi.widgets.SpinBox'>"
p4577
sg41
S'Dimension[-2]'
p4578
sg43
(dp4579
S'outport'
p4580
I00
sS'quietval'
p4581
Nsg47
I180
sS'min'
p4582
I1
sS'max'
p4583
I2147483647
sS'collapsed'
p4584
I00
sS'wrapping'
p4585
I00
sS'immediate'
p4586
I00
sS'label'
p4587
g74
sS'singlestep'
p4588
I1
sS'visible'
p4589
I00
sS'inport'
p4590
I00
sS'id'
p4591
I139909164544536
ssa(dp4592
g39
S"<class 'gpi.widgets.SpinBox'>"
p4593
sg41
S'Dimension[-3]'
p4594
sg43
(dp4595
S'outport'
p4596
I00
sS'quietval'
p4597
Nsg47
I230
sS'min'
p4598
I1
sS'max'
p4599
I2147483647
sS'collapsed'
p4600
I00
sS'wrapping'
p4601
I00
sS'immediate'
p4602
I00
sS'label'
p4603
g74
sS'singlestep'
p4604
I1
sS'visible'
p4605
I00
sS'inport'
p4606
I00
sS'id'
p4607
I139909164545448
ssa(dp4608
g39
S"<class 'gpi.widgets.SpinBox'>"
p4609
sg41
S'Dimension[-4]'
p4610
sg43
(dp4611
S'outport'
p4612
I00
sS'quietval'
p4613
Nsg47
I0
sS'min'
p4614
I-2147483648
sS'max'
p4615
I2147483647
sS'collapsed'
p4616
I00
sS'wrapping'
p4617
I00
sS'immediate'
p4618
I00
sS'label'
p4619
g74
sS'singlestep'
p4620
I1
sS'visible'
p4621
I00
sS'inport'
p4622
I00
sS'id'
p4623
I139909164546360
ssa(dp4624
g39
S"<class 'gpi.widgets.SpinBox'>"
p4625
sg41
S'Dimension[-5]'
p4626
sg43
(dp4627
S'outport'
p4628
I00
sS'quietval'
p4629
Nsg47
I0
sS'min'
p4630
I-2147483648
sS'max'
p4631
I2147483647
sS'collapsed'
p4632
I00
sS'wrapping'
p4633
I00
sS'immediate'
p4634
I00
sS'label'
p4635
g74
sS'singlestep'
p4636
I1
sS'visible'
p4637
I00
sS'inport'
p4638
I00
sS'id'
p4639
I139909164547272
ssa(dp4640
g39
S"<class 'gpi.widgets.SpinBox'>"
p4641
sg41
S'Dimension[-6]'
p4642
sg43
(dp4643
S'outport'
p4644
I00
sS'quietval'
p4645
Nsg47
I0
sS'min'
p4646
I-2147483648
sS'max'
p4647
I2147483647
sS'collapsed'
p4648
I00
sS'wrapping'
p4649
I00
sS'immediate'
p4650
I00
sS'label'
p4651
g74
sS'singlestep'
p4652
I1
sS'visible'
p4653
I00
sS'inport'
p4654
I00
sS'id'
p4655
I139909164548328
ssa(dp4656
g39
S"<class 'gpi.widgets.SpinBox'>"
p4657
sg41
S'Dimension[-7]'
p4658
sg43
(dp4659
S'outport'
p4660
I00
sS'quietval'
p4661
Nsg47
I0
sS'min'
p4662
I-2147483648
sS'max'
p4663
I2147483647
sS'collapsed'
p4664
I00
sS'wrapping'
p4665
I00
sS'immediate'
p4666
I00
sS'label'
p4667
g74
sS'singlestep'
p4668
I1
sS'visible'
p4669
I00
sS'inport'
p4670
I00
sS'id'
p4671
I139909164549240
ssa(dp4672
g39
S"<class 'gpi.widgets.SpinBox'>"
p4673
sg41
S'Dimension[-8]'
p4674
sg43
(dp4675
S'outport'
p4676
I00
sS'quietval'
p4677
Nsg47
I0
sS'min'
p4678
I-2147483648
sS'max'
p4679
I2147483647
sS'collapsed'
p4680
I00
sS'wrapping'
p4681
I00
sS'immediate'
p4682
I00
sS'label'
p4683
g74
sS'singlestep'
p4684
I1
sS'visible'
p4685
I00
sS'inport'
p4686
I00
sS'id'
p4687
I139909164550152
ssa(dp4688
g39
S"<class 'gpi.widgets.SpinBox'>"
p4689
sg41
S'Dimension[-9]'
p4690
sg43
(dp4691
S'outport'
p4692
I00
sS'quietval'
p4693
Nsg47
I0
sS'min'
p4694
I-2147483648
sS'max'
p4695
I2147483647
sS'collapsed'
p4696
I00
sS'wrapping'
p4697
I00
sS'immediate'
p4698
I00
sS'label'
p4699
g74
sS'singlestep'
p4700
I1
sS'visible'
p4701
I00
sS'inport'
p4702
I00
sS'id'
p4703
I139909164551064
ssa(dp4704
g39
S"<class 'gpi.widgets.SpinBox'>"
p4705
sg41
S'Dimension[-10]'
p4706
sg43
(dp4707
S'outport'
p4708
I00
sS'quietval'
p4709
Nsg47
I0
sS'min'
p4710
I-2147483648
sS'max'
p4711
I2147483647
sS'collapsed'
p4712
I00
sS'wrapping'
p4713
I00
sS'immediate'
p4714
I00
sS'label'
p4715
g74
sS'singlestep'
p4716
I1
sS'visible'
p4717
I00
sS'inport'
p4718
I00
sS'id'
p4719
I139909164551976
ssa(dp4720
g39
S"<class 'gpi.widgets.SpinBox'>"
p4721
sg41
S'Dimension[-11]'
p4722
sg43
(dp4723
S'outport'
p4724
I00
sS'quietval'
p4725
Nsg47
I0
sS'min'
p4726
I-2147483648
sS'max'
p4727
I2147483647
sS'collapsed'
p4728
I00
sS'wrapping'
p4729
I00
sS'immediate'
p4730
I00
sS'label'
p4731
g74
sS'singlestep'
p4732
I1
sS'visible'
p4733
I00
sS'inport'
p4734
I00
sS'id'
p4735
I139909164557128
ssa(dp4736
g39
S"<class 'gpi.widgets.SpinBox'>"
p4737
sg41
S'Dimension[-12]'
p4738
sg43
(dp4739
S'outport'
p4740
I00
sS'quietval'
p4741
Nsg47
I0
sS'min'
p4742
I-2147483648
sS'max'
p4743
I2147483647
sS'collapsed'
p4744
I00
sS'wrapping'
p4745
I00
sS'immediate'
p4746
I00
sS'label'
p4747
g74
sS'singlestep'
p4748
I1
sS'visible'
p4749
I00
sS'inport'
p4750
I00
sS'id'
p4751
I139909164558040
ssa(dp4752
g39
S"<class 'gpi.widgets.SpinBox'>"
p4753
sg41
S'Dimension[-13]'
p4754
sg43
(dp4755
S'outport'
p4756
I00
sS'quietval'
p4757
Nsg47
I0
sS'min'
p4758
I-2147483648
sS'max'
p4759
I2147483647
sS'collapsed'
p4760
I00
sS'wrapping'
p4761
I00
sS'immediate'
p4762
I00
sS'label'
p4763
g74
sS'singlestep'
p4764
I1
sS'visible'
p4765
I00
sS'inport'
p4766
I00
sS'id'
p4767
I139909164558952
ssa(dp4768
g39
S"<class 'gpi.widgets.NonExclusivePushButtons'>"
p4769
sg41
g3796
sg43
(dp4770
S'outport'
p4771
I00
sS'quietval'
p4772
Nsg47
(lp4773
sS'collapsed'
p4774
I00
sS'inport'
p4775
I00
sS'visible'
p4776
I00
sS'id'
p4777
I139909164559864
ssa(dp4778
g39
S"<class 'gpi.widgets.ExclusivePushButtons'>"
p4779
sg41
S'Tile Dimension'
p4780
sg43
(dp4781
S'outport'
p4782
I00
sS'quietval'
p4783
Nsg47
I2
sS'collapsed'
p4784
I00
sS'inport'
p4785
I00
sS'visible'
p4786
I01
sS'id'
p4787
I139909164562288
ssa(dp4788
g39
S"<class 'gpi.widgets.PushButton'>"
p4789
sg41
g769
sg43
(dp4790
S'outport'
p4791
I00
sS'quietval'
p4792
Nsg47
I01
sS'collapsed'
p4793
I00
sS'inport'
p4794
I00
sS'visible'
p4795
I01
sS'toggle'
p4796
I01
sS'button_title'
p4797
g74
sS'id'
p4798
I139909164563048
ssa(dp4799
g39
S"<class 'gpi.widgets.PushButton'>"
p4800
sg41
g3828
sg43
(dp4801
S'outport'
p4802
I00
sS'quietval'
p4803
Nsg47
I00
sS'collapsed'
p4804
I00
sS'inport'
p4805
I00
sS'visible'
p4806
I01
sS'toggle'
p4807
I01
sS'button_title'
p4808
g74
sS'id'
p4809
I139909164563808
ssasg211
g779
ssg213
S'0.192820310593'
p4810
sg41
g3839
sg216
(lp4811
F-190.4053279914425
aF79.80653162876952
asg218
(lp4812
(dp4813
g221
g222
sg223
I0
sg224
(lp4814
(dp4815
g227
(dp4816
g229
g222
sg230
I139909164564712
sg231
I0
sg232
I139909164531344
ssg233
(dp4817
g229
g235
sg230
I139909182351824
sg231
I0
sg232
I139909182288408
ssasg236
Nsg237
I65540
sg238
I100
sg239
I139909164564712
sa(dp4818
g221
g235
sg223
I0
sg224
(lp4819
(dp4820
g227
(dp4821
g229
g222
sg230
I139909183804384
sg231
I0
sg232
I139909184306376
ssg233
(dp4822
g229
g235
sg230
I139909164564864
sg231
I0
sg232
I139909164531344
ssasg236
Nsg237
I65541
sg238
Nsg239
I139909164564864
sasg242
S'0.0335662517403'
p4823
sg244
g3853
sg239
I139909164531344
sg246
S'0.211484909058'
p4824
sa(dp4825
g34
(dp4826
g36
(lp4827
(dp4828
g39
S"<class 'gpi.widgets.ExclusivePushButtons'>"
p4829
sg41
S'regularization'
p4830
sg43
(dp4831
S'outport'
p4832
I00
sS'quietval'
p4833
Nsg47
I1
sS'collapsed'
p4834
I00
sS'inport'
p4835
I00
sS'visible'
p4836
I01
sS'id'
p4837
I139909184455040
ssa(dp4838
g39
S"<class 'gpi.widgets.DoubleSpinBox'>"
p4839
sg41
S'lamb'
p4840
sg43
(dp4841
S'outport'
p4842
I00
sS'quietval'
p4843
Nsg47
F0.01
sS'min'
p4844
F0.0
sS'max'
p4845
F1.0
sS'collapsed'
p4846
I00
sS'wrapping'
p4847
I00
sS'immediate'
p4848
I00
sS'label'
p4849
g74
sS'singlestep'
p4850
F1.0
sS'visible'
p4851
I01
sS'inport'
p4852
I00
sS'decimals'
p4853
I5
sS'id'
p4854
I139909184455648
ssasg211
g779
ssg213
S'1.12605893612'
p4855
sg41
S'PICS'
p4856
sg216
(lp4857
F78.98286104290807
aF-93.96305390950764
asg218
(lp4858
(dp4859
g221
g1046
sg223
I0
sg224
(lp4860
(dp4861
g227
(dp4862
g229
g1046
sg230
I139909184456560
sg231
I0
sg232
I139909184419544
ssg233
(dp4863
g229
g235
sg230
I139909183479288
sg231
I0
sg232
I139909183462448
ssasg236
Nsg237
I65540
sg238
I100
sg239
I139909184456560
sa(dp4864
g221
g985
sg223
I1
sg224
(lp4865
(dp4866
g227
(dp4867
g229
g985
sg230
I139909184456712
sg231
I1
sg232
I139909184419544
ssg233
(dp4868
g229
g235
sg230
I139909182269752
sg231
I0
sg232
I139909182722432
ssasg236
Nsg237
I65540
sg238
I100
sg239
I139909184456712
sa(dp4869
g221
S'traj'
p4870
sg223
I2
sg224
(lp4871
sg236
Nsg237
I65540
sg238
I200
sg239
I139909184456864
sa(dp4872
g221
g1131
sg223
I0
sg224
(lp4873
(dp4874
g227
(dp4875
g229
g222
sg230
I139909164748880
sg231
I0
sg232
I139909164672880
ssg233
(dp4876
g229
g1131
sg230
I139909184457016
sg231
I0
sg232
I139909184419544
ssasg236
Nsg237
I65541
sg238
Nsg239
I139909184457016
sasg242
S'0.0647460222244'
p4877
sg244
S'bart.gpi.PICS'
p4878
sg239
I139909184419544
sg246
S'1.06131291389'
p4879
sa(dp4880
g34
(dp4881
g36
(lp4882
(dp4883
g39
S"<class 'gpi.widgets.TextBox'>"
p4884
sg41
S'I/O Info:'
p4885
sg43
(dp4886
S'openExternalLinks'
p4887
I00
sS'outport'
p4888
I00
sS'quietval'
p4889
Nsg47
S'input: (1, 230, 180)\noutput: (230, 180)'
p4890
sS'collapsed'
p4891
I00
sS'inport'
p4892
I00
sS'visible'
p4893
I01
sS'wordwrap'
p4894
I00
sS'id'
p4895
I139909038116496
ssa(dp4896
g39
S"<class '/opt/gpi/node/core/shapers/GPI/Reduce_GPI.ReduceSliders'>"
p4897
sg41
S'Dimension[-1]'
p4898
sg43
(dp4899
S'outport'
p4900
I00
sS'quietval'
p4901
Nsg47
(dp4902
g629
I180
sg119
I180
sg630
I3
sg631
I91
sg118
I1
ssS'min'
p4903
I1
sS'max'
p4904
I180
sS'collapsed'
p4905
I00
sS'inport'
p4906
I00
sS'visible'
p4907
I01
sS'id'
p4908
I139909038121192
ssa(dp4909
g39
S"<class '/opt/gpi/node/core/shapers/GPI/Reduce_GPI.ReduceSliders'>"
p4910
sg41
S'Dimension[-2]'
p4911
sg43
(dp4912
S'outport'
p4913
I00
sS'quietval'
p4914
Nsg47
(dp4915
g629
I230
sg119
I230
sg630
I3
sg631
I116
sg118
I1
ssS'min'
p4916
I1
sS'max'
p4917
I230
sS'collapsed'
p4918
I00
sS'inport'
p4919
I00
sS'visible'
p4920
I01
sS'id'
p4921
I139909059130488
ssa(dp4922
g39
S"<class '/opt/gpi/node/core/shapers/GPI/Reduce_GPI.ReduceSliders'>"
p4923
sg41
S'Dimension[-3]'
p4924
sg43
(dp4925
S'outport'
p4926
I00
sS'quietval'
p4927
Nsg47
(dp4928
g629
I1
sg119
I1
sg630
I2
sg631
I1
sg118
I1
ssS'min'
p4929
I1
sS'max'
p4930
I1
sS'collapsed'
p4931
I00
sS'inport'
p4932
I00
sS'visible'
p4933
I01
sS'id'
p4934
I139909038135304
ssa(dp4935
g39
S"<class '/opt/gpi/node/core/shapers/GPI/Reduce_GPI.ReduceSliders'>"
p4936
sg41
S'Dimension[-4]'
p4937
sg43
(dp4938
S'outport'
p4939
I00
sS'quietval'
p4940
Nsg47
(dp4941
g629
I1
sg119
I1
sg630
I3
sg631
I1
sg118
I1
ssS'min'
p4942
I1
sS'max'
p4943
I100
sS'collapsed'
p4944
I00
sS'inport'
p4945
I00
sS'visible'
p4946
I00
sS'id'
p4947
I139909038144408
ssa(dp4948
g39
S"<class '/opt/gpi/node/core/shapers/GPI/Reduce_GPI.ReduceSliders'>"
p4949
sg41
S'Dimension[-5]'
p4950
sg43
(dp4951
S'outport'
p4952
I00
sS'quietval'
p4953
Nsg47
(dp4954
g629
I1
sg119
I1
sg630
I3
sg631
I1
sg118
I1
ssS'min'
p4955
I1
sS'max'
p4956
I100
sS'collapsed'
p4957
I00
sS'inport'
p4958
I00
sS'visible'
p4959
I00
sS'id'
p4960
I139909038149416
ssa(dp4961
g39
S"<class '/opt/gpi/node/core/shapers/GPI/Reduce_GPI.ReduceSliders'>"
p4962
sg41
S'Dimension[-6]'
p4963
sg43
(dp4964
S'outport'
p4965
I00
sS'quietval'
p4966
Nsg47
(dp4967
g629
I1
sg119
I1
sg630
I3
sg631
I1
sg118
I1
ssS'min'
p4968
I1
sS'max'
p4969
I100
sS'collapsed'
p4970
I00
sS'inport'
p4971
I00
sS'visible'
p4972
I00
sS'id'
p4973
I139909038158664
ssa(dp4974
g39
S"<class '/opt/gpi/node/core/shapers/GPI/Reduce_GPI.ReduceSliders'>"
p4975
sg41
S'Dimension[-7]'
p4976
sg43
(dp4977
S'outport'
p4978
I00
sS'quietval'
p4979
Nsg47
(dp4980
g629
I1
sg119
I1
sg630
I3
sg631
I1
sg118
I1
ssS'min'
p4981
I1
sS'max'
p4982
I100
sS'collapsed'
p4983
I00
sS'inport'
p4984
I00
sS'visible'
p4985
I00
sS'id'
p4986
I139909038163672
ssa(dp4987
g39
S"<class '/opt/gpi/node/core/shapers/GPI/Reduce_GPI.ReduceSliders'>"
p4988
sg41
S'Dimension[-8]'
p4989
sg43
(dp4990
S'outport'
p4991
I00
sS'quietval'
p4992
Nsg47
(dp4993
g629
I1
sg119
I1
sg630
I3
sg631
I1
sg118
I1
ssS'min'
p4994
I1
sS'max'
p4995
I100
sS'collapsed'
p4996
I00
sS'inport'
p4997
I00
sS'visible'
p4998
I00
sS'id'
p4999
I139909038168680
ssa(dp5000
g39
S"<class '/opt/gpi/node/core/shapers/GPI/Reduce_GPI.ReduceSliders'>"
p5001
sg41
S'Dimension[-9]'
p5002
sg43
(dp5003
S'outport'
p5004
I00
sS'quietval'
p5005
Nsg47
(dp5006
g629
I1
sg119
I1
sg630
I3
sg631
I1
sg118
I1
ssS'min'
p5007
I1
sS'max'
p5008
I100
sS'collapsed'
p5009
I00
sS'inport'
p5010
I00
sS'visible'
p5011
I00
sS'id'
p5012
I139909038177784
ssa(dp5013
g39
S"<class '/opt/gpi/node/core/shapers/GPI/Reduce_GPI.ReduceSliders'>"
p5014
sg41
S'Dimension[-10]'
p5015
sg43
(dp5016
S'outport'
p5017
I00
sS'quietval'
p5018
Nsg47
(dp5019
g629
I1
sg119
I1
sg630
I3
sg631
I1
sg118
I1
ssS'min'
p5020
I1
sS'max'
p5021
I100
sS'collapsed'
p5022
I00
sS'inport'
p5023
I00
sS'visible'
p5024
I00
sS'id'
p5025
I139909038182936
ssa(dp5026
g39
S"<class 'gpi.widgets.PushButton'>"
p5027
sg41
g757
sg43
(dp5028
S'outport'
p5029
I00
sS'quietval'
p5030
Nsg47
I00
sS'collapsed'
p5031
I00
sS'inport'
p5032
I00
sS'visible'
p5033
I01
sS'toggle'
p5034
I01
sS'button_title'
p5035
g74
sS'id'
p5036
I139909038192040
ssa(dp5037
g39
S"<class 'gpi.widgets.PushButton'>"
p5038
sg41
g769
sg43
(dp5039
S'outport'
p5040
I00
sS'quietval'
p5041
Nsg47
I01
sS'collapsed'
p5042
I00
sS'inport'
p5043
I00
sS'visible'
p5044
I01
sS'toggle'
p5045
I01
sS'button_title'
p5046
g74
sS'id'
p5047
I139909038192800
ssasg211
g779
ssg213
S'0.201139291128'
p5048
sg41
g781
sg216
(lp5049
F179.5168019960312
aF233.2947419368949
asg218
(lp5050
(dp5051
g221
g222
sg223
I0
sg224
(lp5052
(dp5053
g227
(dp5054
g229
g222
sg230
I139909038193560
sg231
I0
sg232
I139909038113608
ssg233
(dp5055
g229
g1639
sg230
I139909282960352
sg231
I0
sg232
I139909279965720
ssasg236
Nsg237
I65540
sg238
I100
sg239
I139909038193560
sa(dp5056
g221
g235
sg223
I0
sg224
(lp5057
(dp5058
g227
(dp5059
g229
g222
sg230
I139909182426768
sg231
I0
sg232
I139909313196112
ssg233
(dp5060
g229
g235
sg230
I139909038193712
sg231
I0
sg232
I139909038113608
ssasg236
Nsg237
I65541
sg238
Nsg239
I139909038193712
sa(dp5061
g221
g796
sg223
I1
sg224
(lp5062
sg236
Nsg237
I65541
sg238
Nsg239
I139909038193864
sasg242
S'0.00321038694875'
p5063
sg244
g799
sg239
I139909038113608
sg246
S'0.196635007858'
p5064
sa(dp5065
g34
(dp5066
g36
(lp5067
(dp5068
g39
S"<class 'gpi.widgets.ExclusivePushButtons'>"
p5069
sg41
S'Regularization:'
p5070
sg43
(dp5071
S'outport'
p5072
I00
sS'quietval'
p5073
Nsg47
I0
sS'collapsed'
p5074
I00
sS'inport'
p5075
I00
sS'visible'
p5076
I01
sS'id'
p5077
I139909182697704
ssa(dp5078
g39
S"<class 'gpi.widgets.DoubleSpinBox'>"
p5079
sg41
S'regularization parameter'
p5080
sg43
(dp5081
S'outport'
p5082
I00
sS'quietval'
p5083
Nsg47
F0.0
sS'min'
p5084
F-1.7976931348623157e+308
sS'max'
p5085
F1.7976931348623157e+308
sS'collapsed'
p5086
I00
sS'wrapping'
p5087
I00
sS'immediate'
p5088
I00
sS'label'
p5089
g74
sS'singlestep'
p5090
F1.0
sS'visible'
p5091
I01
sS'inport'
p5092
I00
sS'decimals'
p5093
I2
sS'id'
p5094
I139909182698312
ssasg211
g779
ssg213
S'1.45633995533'
p5095
sg41
g3245
sg216
(lp5096
F179.5168019960312
aF95.29474193689487
asg218
(lp5097
(dp5098
g221
g1046
sg223
I0
sg224
(lp5099
(dp5100
g227
(dp5101
g229
g1046
sg230
I139909182699224
sg231
I0
sg232
I139909182678592
ssg233
(dp5102
g229
g235
sg230
I139909183479288
sg231
I0
sg232
I139909183462448
ssasg236
Nsg237
I65540
sg238
I100
sg239
I139909182699224
sa(dp5103
g221
g977
sg223
I1
sg224
(lp5104
(dp5105
g227
(dp5106
g229
g977
sg230
I139909182699376
sg231
I1
sg232
I139909182678592
ssg233
(dp5107
g229
g1131
sg230
I139909280922824
sg231
I0
sg232
I139909282962936
ssasg236
Nsg237
I65540
sg238
I100
sg239
I139909182699376
sa(dp5108
g221
g1131
sg223
I0
sg224
(lp5109
(dp5110
g227
(dp5111
g229
g1126
sg230
I139909184212168
sg231
I0
sg232
I139909282962632
ssg233
(dp5112
g229
g1131
sg230
I139909182699528
sg231
I0
sg232
I139909182678592
ssasg236
Nsg237
I65541
sg238
Nsg239
I139909182699528
sasg242
S'0.366628050804'
p5113
sg244
g3264
sg239
I139909182678592
sg246
S'1.08971190453'
p5114
sa(dp5115
g34
(dp5116
g36
(lp5117
(dp5118
g39
S"<class 'gpi.widgets.TextBox'>"
p5119
sg41
g1515
sg43
(dp5120
S'openExternalLinks'
p5121
I00
sS'outport'
p5122
I00
sS'quietval'
p5123
Nsg47
S'Ready'
p5124
sS'collapsed'
p5125
I00
sS'inport'
p5126
I00
sS'visible'
p5127
I01
sS'wordwrap'
p5128
I00
sS'id'
p5129
I139909181946320
ssa(dp5130
g39
S"<class 'gpi.widgets.TextBox'>"
p5131
sg41
g1528
sg43
(dp5132
S'openExternalLinks'
p5133
I00
sS'outport'
p5134
I00
sS'quietval'
p5135
Nsg47
S'input: (1, 230, 180, 8)\noutput: (1, 230, 180)'
p5136
sS'collapsed'
p5137
I00
sS'inport'
p5138
I00
sS'visible'
p5139
I01
sS'wordwrap'
p5140
I00
sS'id'
p5141
I139909181946776
ssa(dp5142
g39
S"<class 'gpi.widgets.ExclusiveRadioButtons'>"
p5143
sg41
g1084
sg43
(dp5144
S'outport'
p5145
I00
sS'quietval'
p5146
Nsg47
I5
sS'collapsed'
p5147
I00
sS'inport'
p5148
I00
sS'visible'
p5149
I01
sS'id'
p5150
I139909181947232
ssa(dp5151
g39
S"<class 'gpi.widgets.PushButton'>"
p5152
sg41
g769
sg43
(dp5153
S'outport'
p5154
I00
sS'quietval'
p5155
Nsg47
I01
sS'collapsed'
p5156
I00
sS'inport'
p5157
I00
sS'visible'
p5158
I01
sS'toggle'
p5159
I01
sS'button_title'
p5160
g74
sS'id'
p5161
I139909181961792
ssa(dp5162
g39
S"<class 'gpi.widgets.PushButton'>"
p5163
sg41
S'Collapse All'
p5164
sg43
(dp5165
S'outport'
p5166
I00
sS'quietval'
p5167
Nsg47
I00
sS'collapsed'
p5168
I00
sS'inport'
p5169
I00
sS'visible'
p5170
I01
sS'toggle'
p5171
I01
sS'button_title'
p5172
g74
sS'id'
p5173
I139909181962552
ssa(dp5174
g39
S"<class 'gpi.widgets.ExclusivePushButtons'>"
p5175
sg41
g1573
sg43
(dp5176
S'outport'
p5177
I00
sS'quietval'
p5178
Nsg47
I0
sS'collapsed'
p5179
I00
sS'inport'
p5180
I00
sS'visible'
p5181
I01
sS'id'
p5182
I139909181963312
ssa(dp5183
g39
S"<class 'gpi.widgets.PushButton'>"
p5184
sg41
S'Span Entire Dimension'
p5185
sg43
(dp5186
S'outport'
p5187
I00
sS'quietval'
p5188
Nsg47
I01
sS'collapsed'
p5189
I00
sS'inport'
p5190
I00
sS'visible'
p5191
I01
sS'toggle'
p5192
I01
sS'button_title'
p5193
g74
sS'id'
p5194
I139909181968464
ssa(dp5195
g39
S"<class 'gpi.widgets.Slider'>"
p5196
sg41
S'Dimension Start_Index'
p5197
sg43
(dp5198
S'outport'
p5199
I00
sS'quietval'
p5200
Nsg47
I0
sS'min'
p5201
I0
sS'max'
p5202
I8
sS'collapsed'
p5203
I00
sS'inport'
p5204
I00
sS'visible'
p5205
I00
sS'id'
p5206
I139909181969224
ssa(dp5207
g39
S"<class 'gpi.widgets.Slider'>"
p5208
sg41
S'Dimension Stop_Index'
p5209
sg43
(dp5210
S'outport'
p5211
I00
sS'quietval'
p5212
Nsg47
I0
sS'min'
p5213
I0
sS'max'
p5214
I8
sS'collapsed'
p5215
I00
sS'inport'
p5216
I00
sS'visible'
p5217
I00
sS'id'
p5218
I139909181970440
ssa(dp5219
g39
S"<class 'gpi.widgets.PushButton'>"
p5220
sg41
S'Non-Zero'
p5221
sg43
(dp5222
S'outport'
p5223
I00
sS'quietval'
p5224
Nsg47
I00
sS'collapsed'
p5225
I00
sS'inport'
p5226
I00
sS'visible'
p5227
I00
sS'toggle'
p5228
I01
sS'button_title'
p5229
g74
sS'id'
p5230
I139909181971656
ssasg211
g779
ssg213
S'0.242676258087'
p5231
sg41
g1630
sg216
(lp5232
F-91.66528579858631
aF328.94895769656284
asg218
(lp5233
(dp5234
g221
g222
sg223
I0
sg224
(lp5235
(dp5236
g227
(dp5237
g229
g222
sg230
I139909181976656
sg231
I0
sg232
I139909181927208
ssg233
(dp5238
g229
g235
sg230
I139909184181368
sg231
I0
sg232
I139909184136008
ssasg236
Nsg237
I65540
sg238
I100
sg239
I139909181976656
sa(dp5239
g221
g4209
sg223
I0
sg224
(lp5240
(dp5241
g227
(dp5242
g229
g222
sg230
I139909059278400
sg231
I0
sg232
I139909059186016
ssg233
(dp5243
g229
g4209
sg230
I139909181976808
sg231
I0
sg232
I139909181927208
ssasg236
Nsg237
I65541
sg238
Nsg239
I139909181976808
sa(dp5244
g221
S'Collapse All Dims'
p5245
sg223
I1
sg224
(lp5246
sg236
Nsg237
I65541
sg238
Nsg239
I139909181976960
sa(dp5247
g221
S'Max Val Index'
p5248
sg223
I2
sg224
(lp5249
sg236
Nsg237
I65541
sg238
Nsg239
I139909181977112
sasg242
S'0.0242502958327'
p5250
sg244
g1651
sg239
I139909181927208
sg246
S'0.276401996613'
p5251
sa(dp5252
g34
(dp5253
g36
(lp5254
(dp5255
g39
S"<class '/opt/gpi/node/core/math/GPI/FFTW_GPI.FFTW_GROUP'>"
p5256
sg41
S'Dimension[-1]'
p5257
sg43
(dp5258
S'outport'
p5259
I00
sS'quietval'
p5260
Nsg47
(dp5261
g1850
I8
sg1851
I8
sg1111
I00
ssS'collapsed'
p5262
I00
sS'inport'
p5263
I00
sS'visible'
p5264
I01
sS'id'
p5265
I139909184254944
ssa(dp5266
g39
S"<class '/opt/gpi/node/core/math/GPI/FFTW_GPI.FFTW_GROUP'>"
p5267
sg41
S'Dimension[-2]'
p5268
sg43
(dp5269
S'outport'
p5270
I00
sS'quietval'
p5271
Nsg47
(dp5272
g1850
I180
sg1851
I180
sg1111
I01
ssS'collapsed'
p5273
I00
sS'inport'
p5274
I00
sS'visible'
p5275
I01
sS'id'
p5276
I139909184256920
ssa(dp5277
g39
S"<class '/opt/gpi/node/core/math/GPI/FFTW_GPI.FFTW_GROUP'>"
p5278
sg41
S'Dimension[-3]'
p5279
sg43
(dp5280
S'outport'
p5281
I00
sS'quietval'
p5282
Nsg47
(dp5283
g1850
I230
sg1851
I230
sg1111
I01
ssS'collapsed'
p5284
I00
sS'inport'
p5285
I00
sS'visible'
p5286
I01
sS'id'
p5287
I139909184263136
ssa(dp5288
g39
S"<class '/opt/gpi/node/core/math/GPI/FFTW_GPI.FFTW_GROUP'>"
p5289
sg41
S'Dimension[-4]'
p5290
sg43
(dp5291
S'outport'
p5292
I00
sS'quietval'
p5293
Nsg47
(dp5294
g1850
I1
sg1851
I1
sg1111
I00
ssS'collapsed'
p5295
I00
sS'inport'
p5296
I00
sS'visible'
p5297
I01
sS'id'
p5298
I139909184265112
ssa(dp5299
g39
S"<class '/opt/gpi/node/core/math/GPI/FFTW_GPI.FFTW_GROUP'>"
p5300
sg41
S'Dimension[-5]'
p5301
sg43
(dp5302
S'outport'
p5303
I00
sS'quietval'
p5304
Nsg47
(dp5305
g1850
I1
sg1851
I1
sg1111
I00
ssS'collapsed'
p5306
I00
sS'inport'
p5307
I00
sS'visible'
p5308
I00
sS'id'
p5309
I139909184271328
ssa(dp5310
g39
S"<class '/opt/gpi/node/core/math/GPI/FFTW_GPI.FFTW_GROUP'>"
p5311
sg41
S'Dimension[-6]'
p5312
sg43
(dp5313
S'outport'
p5314
I00
sS'quietval'
p5315
Nsg47
(dp5316
g1850
I1
sg1851
I1
sg1111
I00
ssS'collapsed'
p5317
I00
sS'inport'
p5318
I00
sS'visible'
p5319
I00
sS'id'
p5320
I139909184273304
ssa(dp5321
g39
S"<class 'gpi.widgets.PushButton'>"
p5322
sg41
g1913
sg43
(dp5323
S'outport'
p5324
I00
sS'quietval'
p5325
Nsg47
I01
sS'collapsed'
p5326
I00
sS'inport'
p5327
I00
sS'visible'
p5328
I01
sS'toggle'
p5329
I01
sS'button_title'
p5330
g74
sS'id'
p5331
I139909184283616
ssa(dp5332
g39
S"<class 'gpi.widgets.PushButton'>"
p5333
sg41
g1111
sg43
(dp5334
S'outport'
p5335
I00
sS'quietval'
p5336
Nsg47
I01
sS'collapsed'
p5337
I00
sS'inport'
p5338
I00
sS'visible'
p5339
I01
sS'toggle'
p5340
I01
sS'button_title'
p5341
g74
sS'id'
p5342
I139909184284376
ssasg211
g779
ssg213
S'0.32031528155'
p5343
sg41
g1935
sg216
(lp5344
F179.5168019960312
aF167.2947419368949
asg218
(lp5345
(dp5346
g221
g222
sg223
I0
sg224
(lp5347
(dp5348
g227
(dp5349
g229
g222
sg230
I139909184285136
sg231
I0
sg232
I139909184219448
ssg233
(dp5350
g229
g235
sg230
I139909184212472
sg231
I0
sg232
I139909282962632
ssasg236
Nsg237
I65540
sg238
I100
sg239
I139909184285136
sa(dp5351
g221
g235
sg223
I0
sg224
(lp5352
(dp5353
g227
(dp5354
g229
g222
sg230
I139909282960200
sg231
I0
sg232
I139909279965720
ssg233
(dp5355
g229
g235
sg230
I139909184285288
sg231
I0
sg232
I139909184219448
ssasg236
Nsg237
I65541
sg238
Nsg239
I139909184285288
sasg242
S'0.0348506377211'
p5356
sg244
g1949
sg239
I139909184219448
sg246
S'0.302639961243'
p5357
sa(dp5358
g34
(dp5359
g36
(lp5360
(dp5361
g39
S"<class '/opt/gpi/node/core/display/GPI/Matplotlib_GPI.MatplotDisplay'>"
p5362
sg41
S'Plot'
p5363
sg43
(dp5364
S'outport'
p5365
I00
sS'quietval'
p5366
Nsg47
(lp5367
cnumpy.core.multiarray
_reconstruct
p5368
(cnumpy
ndarray
p5369
(I0
tp5370
S'b'
p5371
tp5372
Rp5373
(I1
(I225
tp5374
cnumpy
dtype
p5375
(S'c8'
p5376
I0
I1
tp5377
Rp5378
(I3
S'<'
p5379
NNNI-1
I-1
I0
tp5380
bI00
S'\xb3\x83PF\x00\x00\x00\x00\xe2\x1e<F\x00\x00\x00\x00\x0e\x988F\x00\x00\x00\x00R</F\x00\x00\x00\x00\xa9\xda\'F\x00\x00\x00\x00\xa56#F\x00\x00\x00\x00\xf4\xc4\x1dF\x00\x00\x00\x00\xe4t\x1bF\x00\x00\x00\x00E\xe7\x12F\x00\x00\x00\x00d\xb5\rF\x00\x00\x00\x00\x9f\x9b\rF\x00\x00\x00\x00\xa3\x12\x07F\x00\x00\x00\x00}*\x05F\x00\x00\x00\x00\x16r\x00F\x00\x00\x00\x00c0\xf1E\x00\x00\x00\x00\x02\xb6\xedE\x00\x00\x00\x00\np\xe6E\x00\x00\x00\x00)\'\xdaE\x00\x00\x00\x00)+\xd3E\x00\x00\x00\x00\xe6w\xcdE\x00\x00\x00\x00n\xe1\xc1E\x00\x00\x00\x00\\\xa4\xb4E\x00\x00\x00\x00kf\xa5E\x00\x00\x00\x00ys\xa0E\x00\x00\x00\x00\x94*\x9eE\x00\x00\x00\x00\xc7\xee\x95E\x00\x00\x00\x00\xf0n\x8eE\x00\x00\x00\x00\x08\x01\x8aE\x00\x00\x00\x00\xcc\x06sE\x00\x00\x00\x00\x15\x08^E\x00\x00\x00\x00\xbb\x80KE\x00\x00\x00\x00\x88FEE\x00\x00\x00\x00\x11\\;E\x00\x00\x00\x00\xe0\x92.E\x00\x00\x00\x00\xfa\x7f#E\x00\x00\x00\x00\x13\xd0\x18E\x00\x00\x00\x00\xb1\xe1\x02E\x00\x00\x00\x00O\xd1\xf2D\x00\x00\x00\x00\x0e\x99\xe4D\x00\x00\x00\x00^;\xd3D\x00\x00\x00\x00\x9a\xcd\xc5D\x00\x00\x00\x00\xddm\xb3D\x00\x00\x00\x00\x07\xbc\x9cD\x00\x00\x00\x00/\xee\x8dD\x00\x00\x00\x00\x81\x8d\x86D\x00\x00\x00\x00\xf2\x08\x80D\x00\x00\x00\x00g\xb9hD\x00\x00\x00\x00\x9b@UD\x00\x00\x00\x00\xcd[KD\x00\x00\x00\x00\xcb\x9c\x17D\x00\x00\x00\x00\x9a\x1c\x14D\x00\x00\x00\x00\x9e\x04\x0eD\x00\x00\x00\x00)\x19\x08D\x00\x00\x00\x00{\x8c\xffC\x00\x00\x00\x00*\x99\xe6C\x00\x00\x00\x00p\xc1\xd3C\x00\x00\x00\x00h\xca\xc7C\x00\x00\x00\x00pB\x9eC\x00\x00\x00\x00\x06\xa4\x8eC\x00\x00\x00\x00\x13\xc2\x86C\x00\x00\x00\x00\x13\x86~C\x00\x00\x00\x00\xf3!sC\x00\x00\x00\x00\xad;hC\x00\x00\x00\x00\x13\xbdWC\x00\x00\x00\x00\xf1lPC\x00\x00\x00\x00"\xa0<C\x00\x00\x00\x00\xb3Z4C\x00\x00\x00\x00\x0f\x01)C\x00\x00\x00\x00\x9d\xd9\x1dC\x00\x00\x00\x00\x10\xc7\x16C\x00\x00\x00\x00zX\x0fC\x00\x00\x00\x00\xc9\x87\tC\x00\x00\x00\x00\xb2\x06\x00C\x00\x00\x00\x00\xdbm\xf9B\x00\x00\x00\x00\xeel\xefB\x00\x00\x00\x00\x9e\xea\xe8B\x00\x00\x00\x00\xcb\xe1\xd6B\x00\x00\x00\x00j\x81\xd0B\x00\x00\x00\x00$\xf8\xc5B\x00\x00\x00\x00\xd7\xaf\xc2B\x00\x00\x00\x00\x7f\xd6\xbfB\x00\x00\x00\x00>\xc6\xb8B\x00\x00\x00\x00]\x1b\xb3B\x00\x00\x00\x00\x9c;\xacB\x00\x00\x00\x00\xde@\xa8B\x00\x00\x00\x00\xee\xb8\xa5B\x00\x00\x00\x00\xf7\x83\x9fB\x00\x00\x00\x00;\xe1\x9aB\x00\x00\x00\x00\xa36\x99B\x00\x00\x00\x00\x9c\xac\x94B\x00\x00\x00\x00\x8c\xf2\x91B\x00\x00\x00\x00j!\x8eB\x00\x00\x00\x00\x93$\x8bB\x00\x00\x00\x00\xd6\x8c\x88B\x00\x00\x00\x00.\xda\x84B\x00\x00\x00\x00\x14)\x82B\x00\x00\x00\x00\xba9\x7fB\x00\x00\x00\x00xkyB\x00\x00\x00\x00a\xf6oB\x00\x00\x00\x00\xfc\nmB\x00\x00\x00\x00n+iB\x00\x00\x00\x00\xd7\xcefB\x00\x00\x00\x00\xd12dB\x00\x00\x00\x00V\x01^B\x00\x00\x00\x00\x81Q\\B\x00\x00\x00\x00b}WB\x00\x00\x00\x00\xbc\x05TB\x00\x00\x00\x00\x81\xcfOB\x00\x00\x00\x00\x87\x91LB\x00\x00\x00\x00\xbe\x01HB\x00\x00\x00\x00lCDB\x00\x00\x00\x00\xe8Z@B\x00\x00\x00\x00\x17\xa7>B\x00\x00\x00\x00\x8c\xb4;B\x00\x00\x00\x00\xb0\xa49B\x00\x00\x00\x00\xcb\x826B\x00\x00\x00\x00#\xab3B\x00\x00\x00\x00\xce\x120B\x00\x00\x00\x00\xde\xbe.B\x00\x00\x00\x00#\xe0,B\x00\x00\x00\x00\x92B(B\x00\x00\x00\x00(\xc7&B\x00\x00\x00\x00\x95s$B\x00\x00\x00\x00\x98\x1f B\x00\x00\x00\x00\xa3\xd7\x1eB\x00\x00\x00\x00\xe5\xeb\x1dB\x00\x00\x00\x00\xc9\x08\x1dB\x00\x00\x00\x00[\x04\x1aB\x00\x00\x00\x00K\x81\x16B\x00\x00\x00\x00\xec\x11\x14B\x00\x00\x00\x00\xa1\xa7\x12B\x00\x00\x00\x00D\x84\x10B\x00\x00\x00\x00\x0b\xe3\x0eB\x00\x00\x00\x00\x8dp\x0cB\x00\x00\x00\x00\xa2S\x0bB\x00\x00\x00\x00yl\nB\x00\x00\x00\x00\x7fw\x07B\x00\x00\x00\x00*\x18\x05B\x00\x00\x00\x00\xcc\xc9\x03B\x00\x00\x00\x00\xb2}\x02B\x00\x00\x00\x00d\xcb\x00B\x00\x00\x00\x00Z\xa1\xfcA\x00\x00\x00\x00\xb0T\xfbA\x00\x00\x00\x00ou\xf5A\x00\x00\x00\x00\x88\x12\xf4A\x00\x00\x00\x00\x15\xb9\xf1A\x00\x00\x00\x00\x1d\xf6\xedA\x00\x00\x00\x00\xfc{\xecA\x00\x00\x00\x00\x1dc\xe9A\x00\x00\x00\x00\x0b\xde\xe4A\x00\x00\x00\x00\xab\xaf\xe1A\x00\x00\x00\x00\xfb\xba\xdeA\x00\x00\x00\x00f\xed\xdcA\x00\x00\x00\x00\xc8\xed\xd7A\x00\x00\x00\x00\xa6\xfb\xd5A\x00\x00\x00\x00v\xb4\xd2A\x00\x00\x00\x00\xd3\xac\xd0A\x00\x00\x00\x00yj\xcfA\x00\x00\x00\x00\x0b\xc7\xcbA\x00\x00\x00\x00\x18\xfd\xc7A\x00\x00\x00\x00\xa6\xef\xc5A\x00\x00\x00\x00`6\xc2A\x00\x00\x00\x00\x19[\xc0A\x00\x00\x00\x00\xe2\xad\xbdA\x00\x00\x00\x00\xa4\x08\xb9A\x00\x00\x00\x00\x8c\x0c\xb6A\x00\x00\x00\x00\x17\x15\xb4A\x00\x00\x00\x00\xa7>\xb0A\x00\x00\x00\x00\xe1#\xafA\x00\x00\x00\x00\x0bi\xacA\x00\x00\x00\x00\xc3i\xaaA\x00\x00\x00\x00\xba\xd4\xa8A\x00\x00\x00\x00w\xac\xa6A\x00\x00\x00\x00\x8ea\xa4A\x00\x00\x00\x009\x95\xa0A\x00\x00\x00\x00\xd91\x9eA\x00\x00\x00\x00Y^\x9dA\x00\x00\x00\x00\xbf\xf5\x99A\x00\x00\x00\x00\xa2\x8f\x97A\x00\x00\x00\x00z\xc5\x95A\x00\x00\x00\x00\xeb3\x91A\x00\x00\x00\x00\x08l\x90A\x00\x00\x00\x00\xd6N\x8dA\x00\x00\x00\x00\xcbt\x8bA\x00\x00\x00\x00\x90\\\x88A\x00\x00\x00\x00\x157\x86A\x00\x00\x00\x00\xfa1\x84A\x00\x00\x00\x00P\xb6\x81A\x00\x00\x00\x00\xe0\x90\x7fA\x00\x00\x00\x00\xb7\xb7~A\x00\x00\x00\x00\xd4hyA\x00\x00\x00\x00^\xcbsA\x00\x00\x00\x00\x03\xfcpA\x00\x00\x00\x00\x06dcA\x00\x00\x00\x00#\xd8`A\x00\x00\x00\x00j\x9e^A\x00\x00\x00\x00OLYA\x00\x00\x00\x00\x03ZTA\x00\x00\x00\x00\x87{NA\x00\x00\x00\x00\xcb\xc0KA\x00\x00\x00\x00\x84bFA\x00\x00\x00\x00\x081AA\x00\x00\x00\x00\xdb\xb08A\x00\x00\x00\x00<\x944A\x00\x00\x00\x00O\'/A\x00\x00\x00\x000\xcd,A\x00\x00\x00\x00\xdc\x98&A\x00\x00\x00\x00\x80*#A\x00\x00\x00\x00\x87\xd9\x1cA\x00\x00\x00\x00a3\x1bA\x00\x00\x00\x00\x8f\xa1\x17A\x00\x00\x00\x00\xfdA\x15A\x00\x00\x00\x00F\xb5\x0fA\x00\x00\x00\x00\x89\x8e\tA\x00\x00\x00\x00\\\x8b\x05A\x00\x00\x00\x00]\x1a\xfe@\x00\x00\x00\x00\xd0C\xfa@\x00\x00\x00\x00\xa3\xd8\xe9@\x00\x00\x00\x00\nd\xd6@\x00\x00\x00\x00\x8f\x1a\xd2@\x00\x00\x00\x00\x96*\xcd@\x00\x00\x00\x00D\xe1\xc2@\x00\x00\x00\x00\n\xba\xb6@\x00\x00\x00\x00}\x0e\x9d@\x00\x00\x00\x00\xa8\xcd\x8b@\x00\x00\x00\x00'
p5381
tp5382
basS'collapsed'
p5383
I00
sS'inport'
p5384
I00
sS'visible'
p5385
I01
sS'id'
p5386
I139909184306224
ssasg211
S'SV'
p5387
ssg213
S'0.0641458829244'
p5388
sg41
S'Matplotlib'
p5389
sg216
(lp5390
F330.8105204362447
aF-38.04354325807846
asg218
(lp5391
(dp5392
g221
g4388
sg223
I0
sg224
(lp5393
(dp5394
g227
(dp5395
g229
g4388
sg230
I139909183850200
sg231
I0
sg232
I139909184218992
ssg233
(dp5396
g229
g4384
sg230
I139909184365688
sg231
I1
sg232
I139909280720296
ssasg236
Nsg237
I65540
sg238
I200
sg239
I139909183850200
sa(dp5397
g221
S'in1'
p5398
sg223
I1
sg224
(lp5399
sg236
Nsg237
I65540
sg238
I200
sg239
I139909183850352
sa(dp5400
g221
S'in2'
p5401
sg223
I2
sg224
(lp5402
sg236
Nsg237
I65540
sg238
I200
sg239
I139909183850504
sa(dp5403
g221
S'in3'
p5404
sg223
I3
sg224
(lp5405
sg236
Nsg237
I65540
sg238
I200
sg239
I139909183850656
sa(dp5406
g221
S'in4'
p5407
sg223
I4
sg224
(lp5408
sg236
Nsg237
I65540
sg238
I200
sg239
I139909183850808
sa(dp5409
g221
S'in5'
p5410
sg223
I5
sg224
(lp5411
sg236
Nsg237
I65540
sg238
I200
sg239
I139909183850960
sa(dp5412
g221
S'in6'
p5413
sg223
I6
sg224
(lp5414
sg236
Nsg237
I65540
sg238
I200
sg239
I139909183851112
sa(dp5415
g221
S'in7'
p5416
sg223
I7
sg224
(lp5417
sg236
Nsg237
I65540
sg238
I200
sg239
I139909183851264
sasg242
S'0.0456793807216'
p5418
sg244
S'core.display.Matplotlib'
p5419
sg239
I139909184218992
sg246
S'0.104089021683'
p5420
sassS'WALLTIME'
p5421
S'0.0821309089661'
p5422
s.